Certificate:
    Data:
        Version: 3 (0x2)
        Serial Number: 1 (0x1)
        Signature Algorithm: sha1WithRSAEncryption
        Issuer: C=IN, ST=Karnataka, O=Sahi
        Validity
            Not Before: Apr  7 09:41:01 2015 GMT
            Not After : Apr  4 09:41:01 2025 GMT
        Subject: C=IN, ST=Karnataka, O=Sahi, OU=Sahi, CN=clients3.google.com
        Subject Public Key Info:
            Public Key Algorithm: rsaEncryption
            RSA Public Key: (2048 bit)
                Modulus (2048 bit):
                    00:c1:31:3c:ba:11:4a:54:ab:e6:07:f9:5f:95:a3:
                    af:9d:a3:03:7e:9e:01:4f:5b:4a:c7:d0:21:5a:92:
                    2a:34:db:35:01:a4:8b:d7:2d:c4:c6:b9:48:d4:0e:
                    b2:fd:64:98:69:d7:85:6b:e3:40:9b:c7:99:70:06:
                    87:bb:9f:d0:a2:ed:6c:87:a0:e3:e4:30:e5:c8:cc:
                    3d:9b:5e:ca:b4:25:9d:4b:15:17:e4:b5:73:2c:6d:
                    b1:87:7d:b2:ca:a3:9a:02:44:99:b5:2b:97:e0:a8:
                    1b:d3:91:c0:ea:3c:6f:a3:7c:3f:ed:58:c1:8f:ef:
                    2d:84:95:3a:d2:7b:40:84:20:2f:48:f9:b7:5c:fb:
                    29:e6:7b:4a:9c:97:d8:7b:ba:82:8b:24:44:98:1a:
                    ce:09:f2:ec:60:15:0b:0c:59:78:34:1d:aa:fc:0a:
                    ff:55:87:62:e3:36:b7:12:e1:6c:32:bd:93:66:51:
                    3a:b1:c0:72:39:e3:ff:68:28:c4:64:28:64:f0:55:
                    7d:74:04:8e:4b:02:b6:a9:12:9f:a8:a0:2e:c2:5e:
                    27:b6:b6:b1:7a:9c:ed:ca:4a:59:d9:73:c9:e4:0d:
                    0d:5f:d8:67:0b:9a:42:79:e4:c7:62:eb:f8:63:69:
                    db:dd:ef:0c:1e:57:e2:a0:07:1d:d1:84:7f:c7:42:
                    5b:bd
                Exponent: 65537 (0x10001)
        X509v3 extensions:
            X509v3 Basic Constraints: 
                CA:FALSE
            Netscape Comment: 
                OpenSSL Generated Certificate
            X509v3 Subject Key Identifier: 
                62:90:89:06:65:08:A5:71:79:DC:C0:C6:5C:84:63:DA:FB:64:5B:56
            X509v3 Authority Key Identifier: 
                keyid:09:2F:AC:7E:33:BF:4E:00:87:EB:5F:3F:01:A8:AC:81:EE:3E:19:26
                DirName:/C=IN/ST=Karnataka/O=Sahi
                serial:D6:8C:78:5C:DF:F5:9E:A3

    Signature Algorithm: sha1WithRSAEncryption
        00:ec:d8:cd:16:2f:de:4b:8b:a8:43:88:81:91:93:ef:e3:d9:
        68:79:0a:fc:75:71:3b:1d:1e:17:13:54:11:1b:1e:d5:19:16:
        08:3e:06:6d:b6:83:f5:b0:3e:04:c7:c0:f7:96:43:22:6e:cb:
        5c:d4:81:7c:dd:c5:52:71:cd:d3:ac:57:5a:3a:b2:d6:6b:f3:
        31:df:3e:04:91:23:95:56:fb:05:74:e4:fd:06:9c:dc:d9:e5:
        af:c1:12:5d:52:81:4a:05:7f:cf:94:4a:4c:74:9d:67:76:9c:
        cc:e6:88:2a:e8:07:0b:64:0a:31:38:10:c6:81:65:9b:7d:5f:
        7f:d2
-----BEGIN CERTIFICATE-----
MIIDRTCCAq6gAwIBAgIBATANBgkqhkiG9w0BAQUFADAwMQswCQYDVQQGEwJJTjES
MBAGA1UECBMJS2FybmF0YWthMQ0wCwYDVQQKEwRTYWhpMB4XDTE1MDQwNzA5NDEw
MVoXDTI1MDQwNDA5NDEwMVowXTELMAkGA1UEBhMCSU4xEjAQBgNVBAgTCUthcm5h
dGFrYTENMAsGA1UEChMEU2FoaTENMAsGA1UECxMEU2FoaTEcMBoGA1UEAxMTY2xp
ZW50czMuZ29vZ2xlLmNvbTCCASIwDQYJKoZIhvcNAQEBBQADggEPADCCAQoCggEB
AMExPLoRSlSr5gf5X5Wjr52jA36eAU9bSsfQIVqSKjTbNQGki9ctxMa5SNQOsv1k
mGnXhWvjQJvHmXAGh7uf0KLtbIeg4+Qw5cjMPZteyrQlnUsVF+S1cyxtsYd9ssqj
mgJEmbUrl+CoG9ORwOo8b6N8P+1YwY/vLYSVOtJ7QIQgL0j5t1z7KeZ7SpyX2Hu6
goskRJgazgny7GAVCwxZeDQdqvwK/1WHYuM2txLhbDK9k2ZROrHAcjnj/2goxGQo
ZPBVfXQEjksCtqkSn6igLsJeJ7a2sXqc7cpKWdlzyeQNDV/YZwuaQnnkx2Lr+GNp
293vDB5X4qAHHdGEf8dCW70CAwEAAaOBvTCBujAJBgNVHRMEAjAAMCwGCWCGSAGG
+EIBDQQfFh1PcGVuU1NMIEdlbmVyYXRlZCBDZXJ0aWZpY2F0ZTAdBgNVHQ4EFgQU
YpCJBmUIpXF53MDGXIRj2vtkW1YwYAYDVR0jBFkwV4AUCS+sfjO/TgCH618/Aais
ge4+GSahNKQyMDAxCzAJBgNVBAYTAklOMRIwEAYDVQQIEwlLYXJuYXRha2ExDTAL
BgNVBAoTBFNhaGmCCQDWjHhc3/WeozANBgkqhkiG9w0BAQUFAAOBgQAA7NjNFi/e
S4uoQ4iBkZPv49loeQr8dXE7HR4XE1QRGx7VGRYIPgZttoP1sD4Ex8D3lkMibstc
1IF83cVScc3TrFdaOrLWa/Mx3z4EkSOVVvsFdOT9Bpzc2eWvwRJdUoFKBX/PlEpM
dJ1ndpzM5ogq6AcLZAoxOBDGgWWbfV9/0g==
-----END CERTIFICATE-----
