Certificate:
    Data:
        Version: 3 (0x2)
        Serial Number: 2 (0x2)
        Signature Algorithm: sha1WithRSAEncryption
        Issuer: C=IN, ST=Karnataka, O=Sahi
        Validity
            Not Before: Apr  7 09:41:06 2015 GMT
            Not After : Apr  4 09:41:06 2025 GMT
        Subject: C=IN, ST=Karnataka, O=Sahi, OU=Sahi, CN=clients2.google.com
        Subject Public Key Info:
            Public Key Algorithm: rsaEncryption
            RSA Public Key: (2048 bit)
                Modulus (2048 bit):
                    00:ab:8a:29:2e:17:56:75:7e:05:05:24:f1:b9:da:
                    44:99:8d:62:35:14:e8:e5:05:ce:dd:9f:e3:08:95:
                    af:6c:dc:be:98:3e:e1:de:0d:ca:2e:26:d4:a6:9f:
                    85:23:53:6a:b4:9a:3a:6f:5e:a7:a2:b4:99:bd:30:
                    6d:25:d5:f1:6e:a3:34:17:ef:0d:c4:a6:29:37:d2:
                    a5:ef:d7:b1:7f:90:31:b4:1c:dd:ac:14:2e:ef:12:
                    b9:2d:f1:96:a7:8f:28:f6:78:47:7a:00:3a:e5:e5:
                    39:4f:8e:1f:14:d7:b7:29:3f:b2:e1:17:1d:21:2f:
                    a4:46:c0:2d:3a:71:8d:31:ca:6f:47:d3:2c:44:6a:
                    34:0a:5c:c3:10:d3:27:04:88:25:04:86:35:c3:0c:
                    cd:6d:11:00:09:67:96:24:17:db:57:5c:19:bc:35:
                    3c:36:ae:19:5c:c5:cb:c8:06:61:08:b3:46:3a:12:
                    04:e0:9b:68:96:88:95:a0:c5:0f:26:7f:5d:16:e9:
                    1d:81:89:5f:72:46:08:09:3d:4d:2c:a6:4f:7a:97:
                    c9:ca:9a:d4:20:57:84:c6:08:c1:79:f6:5e:b6:81:
                    38:51:b1:ef:6a:6b:18:47:4e:45:e2:2f:74:cc:3f:
                    34:5b:6b:fe:13:e8:65:d6:f5:88:6f:ca:43:d0:04:
                    89:03
                Exponent: 65537 (0x10001)
        X509v3 extensions:
            X509v3 Basic Constraints: 
                CA:FALSE
            Netscape Comment: 
                OpenSSL Generated Certificate
            X509v3 Subject Key Identifier: 
                2C:17:C7:34:3A:84:52:D0:10:7A:8F:28:CD:E6:2C:36:41:65:6E:CA
            X509v3 Authority Key Identifier: 
                keyid:09:2F:AC:7E:33:BF:4E:00:87:EB:5F:3F:01:A8:AC:81:EE:3E:19:26
                DirName:/C=IN/ST=Karnataka/O=Sahi
                serial:D6:8C:78:5C:DF:F5:9E:A3

    Signature Algorithm: sha1WithRSAEncryption
        a4:9d:5b:43:58:95:7f:05:85:06:21:9b:1f:d1:44:67:36:77:
        6c:85:3a:dd:dc:e7:d0:18:e8:50:e9:28:1f:c6:04:5e:29:20:
        c7:72:48:e1:60:6b:e0:63:ae:6c:1f:65:a3:a8:98:44:da:9a:
        a6:29:40:ca:cd:6e:da:6b:ad:f3:55:e6:65:4b:57:29:31:9a:
        72:4a:de:52:50:6b:f2:4d:43:df:1c:8e:9a:65:43:83:a3:61:
        7d:54:d9:ce:3e:3a:78:8c:92:b5:64:96:f6:3d:29:a6:10:8f:
        ac:a1:63:0f:2d:24:2a:c3:7d:c5:47:ff:fc:a2:3d:8b:5a:fa:
        ac:b1
-----BEGIN CERTIFICATE-----
MIIDRTCCAq6gAwIBAgIBAjANBgkqhkiG9w0BAQUFADAwMQswCQYDVQQGEwJJTjES
MBAGA1UECBMJS2FybmF0YWthMQ0wCwYDVQQKEwRTYWhpMB4XDTE1MDQwNzA5NDEw
NloXDTI1MDQwNDA5NDEwNlowXTELMAkGA1UEBhMCSU4xEjAQBgNVBAgTCUthcm5h
dGFrYTENMAsGA1UEChMEU2FoaTENMAsGA1UECxMEU2FoaTEcMBoGA1UEAxMTY2xp
ZW50czIuZ29vZ2xlLmNvbTCCASIwDQYJKoZIhvcNAQEBBQADggEPADCCAQoCggEB
AKuKKS4XVnV+BQUk8bnaRJmNYjUU6OUFzt2f4wiVr2zcvpg+4d4Nyi4m1KafhSNT
arSaOm9ep6K0mb0wbSXV8W6jNBfvDcSmKTfSpe/XsX+QMbQc3awULu8SuS3xlqeP
KPZ4R3oAOuXlOU+OHxTXtyk/suEXHSEvpEbALTpxjTHKb0fTLERqNApcwxDTJwSI
JQSGNcMMzW0RAAlnliQX21dcGbw1PDauGVzFy8gGYQizRjoSBOCbaJaIlaDFDyZ/
XRbpHYGJX3JGCAk9TSymT3qXycqa1CBXhMYIwXn2XraBOFGx72prGEdOReIvdMw/
NFtr/hPoZdb1iG/KQ9AEiQMCAwEAAaOBvTCBujAJBgNVHRMEAjAAMCwGCWCGSAGG
+EIBDQQfFh1PcGVuU1NMIEdlbmVyYXRlZCBDZXJ0aWZpY2F0ZTAdBgNVHQ4EFgQU
LBfHNDqEUtAQeo8ozeYsNkFlbsowYAYDVR0jBFkwV4AUCS+sfjO/TgCH618/Aais
ge4+GSahNKQyMDAxCzAJBgNVBAYTAklOMRIwEAYDVQQIEwlLYXJuYXRha2ExDTAL
BgNVBAoTBFNhaGmCCQDWjHhc3/WeozANBgkqhkiG9w0BAQUFAAOBgQCknVtDWJV/
BYUGIZsf0URnNndshTrd3OfQGOhQ6SgfxgReKSDHckjhYGvgY65sH2WjqJhE2pqm
KUDKzW7aa63zVeZlS1cpMZpySt5SUGvyTUPfHI6aZUODo2F9VNnOPjp4jJK1ZJb2
PSmmEI+soWMPLSQqw33FR//8oj2LWvqssQ==
-----END CERTIFICATE-----
