Certificate:
    Data:
        Version: 3 (0x2)
        Serial Number: 3 (0x3)
        Signature Algorithm: sha1WithRSAEncryption
        Issuer: C=IN, ST=Karnataka, O=Sahi
        Validity
            Not Before: Apr  7 09:41:09 2015 GMT
            Not After : Apr  4 09:41:09 2025 GMT
        Subject: C=IN, ST=Karnataka, O=Sahi, OU=Sahi, CN=ssl.gstatic.com
        Subject Public Key Info:
            Public Key Algorithm: rsaEncryption
            RSA Public Key: (2048 bit)
                Modulus (2048 bit):
                    00:af:c3:4c:d6:c5:d7:fb:2d:d7:8c:fc:cd:f6:08:
                    88:fc:65:b2:12:b0:41:39:79:58:77:c4:03:91:7a:
                    8c:ea:97:13:dc:e7:9d:8e:5d:cf:69:ef:13:f3:8a:
                    a2:69:54:03:35:6b:57:85:d0:96:41:eb:e8:9e:84:
                    6d:99:37:4c:65:72:8b:f7:82:30:aa:32:c5:ff:e1:
                    ee:a9:9b:25:be:70:d0:30:d7:bf:ad:a0:9d:07:f4:
                    f7:65:a6:e4:97:c6:d3:c3:4a:c1:42:a1:31:91:ac:
                    1e:a2:1c:84:33:2d:3e:75:73:70:0d:ff:5b:a2:6b:
                    0e:17:60:ec:bd:8e:dd:5a:35:49:8e:b9:bf:71:9a:
                    fa:5c:ac:c4:08:bc:34:29:eb:b5:a8:dc:3a:23:e5:
                    bd:57:28:4a:22:37:bb:0a:4e:68:4b:cc:da:94:5e:
                    ad:b0:0a:b1:35:aa:69:52:f1:64:8b:c6:b2:8e:3c:
                    a5:ad:25:32:21:4a:6c:22:71:93:06:3d:43:a8:e0:
                    f3:0f:4e:83:bb:80:a6:3e:f3:a6:a8:a3:d5:dc:32:
                    2e:92:ca:53:e4:0d:27:1f:f8:1d:4c:da:39:8e:79:
                    f6:57:de:c0:93:d9:9a:c4:2c:5d:e4:b5:db:91:56:
                    3a:94:8a:17:a0:ce:ae:4e:ef:c0:53:0a:9a:45:68:
                    e2:ad
                Exponent: 65537 (0x10001)
        X509v3 extensions:
            X509v3 Basic Constraints: 
                CA:FALSE
            Netscape Comment: 
                OpenSSL Generated Certificate
            X509v3 Subject Key Identifier: 
                2D:1E:D1:E5:84:E5:89:3D:C1:85:A9:7B:90:28:E0:75:C1:40:1F:8A
            X509v3 Authority Key Identifier: 
                keyid:09:2F:AC:7E:33:BF:4E:00:87:EB:5F:3F:01:A8:AC:81:EE:3E:19:26
                DirName:/C=IN/ST=Karnataka/O=Sahi
                serial:D6:8C:78:5C:DF:F5:9E:A3

    Signature Algorithm: sha1WithRSAEncryption
        61:ef:a1:66:c2:19:09:01:aa:28:e9:24:2c:7a:88:73:91:91:
        b6:4c:59:f2:96:da:fa:d8:96:b6:cf:05:4a:92:9d:0d:5b:7e:
        36:4a:32:9f:c1:fd:5e:d1:5e:be:eb:33:f2:73:95:9c:8e:09:
        27:40:f6:ed:59:d4:c8:8d:4c:df:48:36:45:3e:11:69:48:04:
        e1:f7:6f:0c:b1:e1:c2:af:73:30:6f:36:b1:9b:64:63:f1:5a:
        75:f0:36:ca:d4:c5:b0:93:49:6c:7a:4d:25:c2:43:07:bf:1a:
        66:c0:60:9d:d6:31:39:32:aa:2b:b8:22:40:84:85:37:4d:db:
        5f:67
-----BEGIN CERTIFICATE-----
MIIDQTCCAqqgAwIBAgIBAzANBgkqhkiG9w0BAQUFADAwMQswCQYDVQQGEwJJTjES
MBAGA1UECBMJS2FybmF0YWthMQ0wCwYDVQQKEwRTYWhpMB4XDTE1MDQwNzA5NDEw
OVoXDTI1MDQwNDA5NDEwOVowWTELMAkGA1UEBhMCSU4xEjAQBgNVBAgTCUthcm5h
dGFrYTENMAsGA1UEChMEU2FoaTENMAsGA1UECxMEU2FoaTEYMBYGA1UEAxMPc3Ns
LmdzdGF0aWMuY29tMIIBIjANBgkqhkiG9w0BAQEFAAOCAQ8AMIIBCgKCAQEAr8NM
1sXX+y3XjPzN9giI/GWyErBBOXlYd8QDkXqM6pcT3Oedjl3Pae8T84qiaVQDNWtX
hdCWQevonoRtmTdMZXKL94IwqjLF/+HuqZslvnDQMNe/raCdB/T3Zabkl8bTw0rB
QqExkaweohyEMy0+dXNwDf9bomsOF2DsvY7dWjVJjrm/cZr6XKzECLw0Keu1qNw6
I+W9VyhKIje7Ck5oS8zalF6tsAqxNappUvFki8ayjjylrSUyIUpsInGTBj1DqODz
D06Du4CmPvOmqKPV3DIukspT5A0nH/gdTNo5jnn2V97Ak9maxCxd5LXbkVY6lIoX
oM6uTu/AUwqaRWjirQIDAQABo4G9MIG6MAkGA1UdEwQCMAAwLAYJYIZIAYb4QgEN
BB8WHU9wZW5TU0wgR2VuZXJhdGVkIENlcnRpZmljYXRlMB0GA1UdDgQWBBQtHtHl
hOWJPcGFqXuQKOB1wUAfijBgBgNVHSMEWTBXgBQJL6x+M79OAIfrXz8BqKyB7j4Z
JqE0pDIwMDELMAkGA1UEBhMCSU4xEjAQBgNVBAgTCUthcm5hdGFrYTENMAsGA1UE
ChMEU2FoaYIJANaMeFzf9Z6jMA0GCSqGSIb3DQEBBQUAA4GBAGHvoWbCGQkBqijp
JCx6iHORkbZMWfKW2vrYlrbPBUqSnQ1bfjZKMp/B/V7RXr7rM/JzlZyOCSdA9u1Z
1MiNTN9INkU+EWlIBOH3bwyx4cKvczBvNrGbZGPxWnXwNsrUxbCTSWx6TSXCQwe/
GmbAYJ3WMTkyqiu4IkCEhTdN219n
-----END CERTIFICATE-----
