Certificate:
    Data:
        Version: 3 (0x2)
        Serial Number: 4 (0x4)
        Signature Algorithm: sha1WithRSAEncryption
        Issuer: C=IN, ST=Karnataka, O=Sahi
        Validity
            Not Before: Apr  7 09:41:11 2015 GMT
            Not After : Apr  4 09:41:11 2025 GMT
        Subject: C=IN, ST=Karnataka, O=Sahi, OU=Sahi, CN=clients1.google.com
        Subject Public Key Info:
            Public Key Algorithm: rsaEncryption
            RSA Public Key: (2048 bit)
                Modulus (2048 bit):
                    00:c4:bc:9f:92:b4:20:5c:01:c4:0c:02:72:87:20:
                    81:b3:42:58:cc:6f:be:e7:bb:97:39:e6:78:64:81:
                    97:cc:ef:b4:6b:ef:f8:4b:52:91:f4:c0:a7:e0:80:
                    ce:b6:f0:bc:02:11:bf:7e:11:3f:03:e0:56:01:fd:
                    81:e6:64:a1:79:b7:a8:92:2a:55:1c:a7:02:a1:7f:
                    a4:bc:fb:02:d6:f0:e8:5c:fc:cf:7d:47:e8:ad:11:
                    77:26:21:bd:74:6d:af:04:0f:a0:14:18:89:c0:07:
                    c1:c3:85:b2:47:76:11:78:82:c5:79:be:22:e8:37:
                    9e:d3:f4:29:ab:09:d2:0e:49:d0:3c:80:91:26:3d:
                    2c:63:b0:1c:33:29:60:a3:b4:bc:56:5b:7e:ac:bf:
                    30:27:1a:47:70:f5:89:95:a2:52:a9:b6:87:cc:c0:
                    94:c8:c9:41:e9:d1:e8:cf:b4:b6:d0:52:93:73:8d:
                    20:7e:1b:63:2b:0f:18:bd:af:50:43:68:64:b7:06:
                    20:49:d1:89:60:46:02:d4:9d:25:16:89:b9:95:87:
                    61:33:3b:44:91:04:43:a7:2f:ee:ec:40:f9:8e:20:
                    b4:d9:c1:42:4a:c0:72:0a:86:df:b6:33:ff:31:e8:
                    ed:ae:06:36:17:9b:36:9a:74:ee:38:c6:d9:95:9c:
                    03:81
                Exponent: 65537 (0x10001)
        X509v3 extensions:
            X509v3 Basic Constraints: 
                CA:FALSE
            Netscape Comment: 
                OpenSSL Generated Certificate
            X509v3 Subject Key Identifier: 
                0E:C4:02:82:F4:B3:28:35:82:CB:33:76:53:E9:AF:7E:3F:E5:14:70
            X509v3 Authority Key Identifier: 
                keyid:09:2F:AC:7E:33:BF:4E:00:87:EB:5F:3F:01:A8:AC:81:EE:3E:19:26
                DirName:/C=IN/ST=Karnataka/O=Sahi
                serial:D6:8C:78:5C:DF:F5:9E:A3

    Signature Algorithm: sha1WithRSAEncryption
        78:c3:8f:32:1d:2e:b3:31:87:2b:e8:81:f4:92:90:5d:57:75:
        b7:9c:23:e2:fb:48:d0:1c:d6:9a:25:d0:7c:09:70:fa:fc:5d:
        2f:88:38:52:a4:e4:34:62:69:41:cf:a8:98:ab:4a:94:5d:c2:
        17:1f:06:aa:71:09:6f:82:e1:0a:6c:7f:2b:7e:f2:5b:2d:70:
        ea:9b:9f:27:d0:6a:10:47:d9:11:20:bd:23:2f:28:dc:fd:64:
        f2:be:0f:42:08:a9:0f:f0:6c:82:f3:72:63:f4:02:8a:91:ee:
        2d:e2:40:6b:55:9d:41:dc:21:81:de:da:c6:1f:5c:f3:ad:2a:
        75:7f
-----BEGIN CERTIFICATE-----
MIIDRTCCAq6gAwIBAgIBBDANBgkqhkiG9w0BAQUFADAwMQswCQYDVQQGEwJJTjES
MBAGA1UECBMJS2FybmF0YWthMQ0wCwYDVQQKEwRTYWhpMB4XDTE1MDQwNzA5NDEx
MVoXDTI1MDQwNDA5NDExMVowXTELMAkGA1UEBhMCSU4xEjAQBgNVBAgTCUthcm5h
dGFrYTENMAsGA1UEChMEU2FoaTENMAsGA1UECxMEU2FoaTEcMBoGA1UEAxMTY2xp
ZW50czEuZ29vZ2xlLmNvbTCCASIwDQYJKoZIhvcNAQEBBQADggEPADCCAQoCggEB
AMS8n5K0IFwBxAwCcocggbNCWMxvvue7lznmeGSBl8zvtGvv+EtSkfTAp+CAzrbw
vAIRv34RPwPgVgH9geZkoXm3qJIqVRynAqF/pLz7Atbw6Fz8z31H6K0RdyYhvXRt
rwQPoBQYicAHwcOFskd2EXiCxXm+Iug3ntP0KasJ0g5J0DyAkSY9LGOwHDMpYKO0
vFZbfqy/MCcaR3D1iZWiUqm2h8zAlMjJQenR6M+0ttBSk3ONIH4bYysPGL2vUENo
ZLcGIEnRiWBGAtSdJRaJuZWHYTM7RJEEQ6cv7uxA+Y4gtNnBQkrAcgqG37Yz/zHo
7a4GNhebNpp07jjG2ZWcA4ECAwEAAaOBvTCBujAJBgNVHRMEAjAAMCwGCWCGSAGG
+EIBDQQfFh1PcGVuU1NMIEdlbmVyYXRlZCBDZXJ0aWZpY2F0ZTAdBgNVHQ4EFgQU
DsQCgvSzKDWCyzN2U+mvfj/lFHAwYAYDVR0jBFkwV4AUCS+sfjO/TgCH618/Aais
ge4+GSahNKQyMDAxCzAJBgNVBAYTAklOMRIwEAYDVQQIEwlLYXJuYXRha2ExDTAL
BgNVBAoTBFNhaGmCCQDWjHhc3/WeozANBgkqhkiG9w0BAQUFAAOBgQB4w48yHS6z
MYcr6IH0kpBdV3W3nCPi+0jQHNaaJdB8CXD6/F0viDhSpOQ0YmlBz6iYq0qUXcIX
HwaqcQlvguEKbH8rfvJbLXDqm58n0GoQR9kRIL0jLyjc/WTyvg9CCKkP8GyC83Jj
9AKKke4t4kBrVZ1B3CGB3trGH1zzrSp1fw==
-----END CERTIFICATE-----
