Certificate:
    Data:
        Version: 3 (0x2)
        Serial Number: 5 (0x5)
        Signature Algorithm: sha1WithRSAEncryption
        Issuer: C=IN, ST=Karnataka, O=Sahi
        Validity
            Not Before: Apr  7 09:41:15 2015 GMT
            Not After : Apr  4 09:41:15 2025 GMT
        Subject: C=IN, ST=Karnataka, O=Sahi, OU=Sahi, CN=www.google.com
        Subject Public Key Info:
            Public Key Algorithm: rsaEncryption
            RSA Public Key: (2048 bit)
                Modulus (2048 bit):
                    00:9a:04:07:9d:f4:1a:c8:28:43:b3:d6:e0:ed:3c:
                    c0:00:02:a4:64:3f:0d:b7:c0:ac:f9:7d:1f:eb:0f:
                    46:86:8e:ae:99:90:ba:94:8c:55:36:c7:98:e8:8e:
                    e2:1c:63:b9:ba:8e:85:20:36:76:fd:a1:9c:6e:5d:
                    a0:55:e2:6f:35:be:64:bd:25:bd:de:56:19:67:69:
                    3f:fd:c7:e9:e1:2d:22:a4:95:57:88:c4:7a:96:2e:
                    36:c1:f7:24:6f:65:a1:bd:72:8e:33:a1:8d:29:43:
                    02:62:6b:b0:ac:c6:d9:cf:cc:a1:d7:c7:96:12:0e:
                    f9:97:3b:b2:87:55:63:78:fc:dc:13:1a:d3:a7:43:
                    4d:d1:12:03:2c:aa:81:a4:5c:67:44:60:2d:6d:71:
                    bb:56:ca:ff:fa:34:c0:44:8c:e5:ff:94:38:f5:a5:
                    6d:25:1f:4e:95:74:01:8e:12:d2:51:03:04:78:8f:
                    32:a8:ee:42:43:e1:d2:0a:1b:54:ba:f7:ea:88:1f:
                    8b:e1:10:ba:72:39:4c:ea:b0:e0:1d:fa:71:51:b7:
                    c7:cb:ee:a6:7e:03:e5:87:06:c9:39:93:d3:47:4d:
                    c2:4b:c1:5f:97:3f:1c:99:2d:32:9f:59:e7:83:14:
                    1c:2c:06:bf:d7:e7:cd:c5:cf:16:a1:4a:e2:7b:5a:
                    cf:b1
                Exponent: 65537 (0x10001)
        X509v3 extensions:
            X509v3 Basic Constraints: 
                CA:FALSE
            Netscape Comment: 
                OpenSSL Generated Certificate
            X509v3 Subject Key Identifier: 
                8D:BE:A3:D3:76:D5:D2:AD:36:3A:B2:50:64:AA:C5:FC:76:9B:9F:5A
            X509v3 Authority Key Identifier: 
                keyid:09:2F:AC:7E:33:BF:4E:00:87:EB:5F:3F:01:A8:AC:81:EE:3E:19:26
                DirName:/C=IN/ST=Karnataka/O=Sahi
                serial:D6:8C:78:5C:DF:F5:9E:A3

    Signature Algorithm: sha1WithRSAEncryption
        d0:e7:66:a2:00:37:8b:8a:75:b1:0d:c6:93:4c:7a:8e:bf:26:
        e1:c4:a9:31:ee:6b:d5:60:2f:35:98:f8:b4:e0:9c:e5:62:98:
        d4:f6:fb:0e:77:93:46:32:65:08:51:97:23:fd:5f:ed:fb:f8:
        94:46:99:a5:77:76:36:c7:a4:03:30:f2:05:aa:4f:2e:b2:a1:
        b8:21:a5:91:e7:48:2c:2d:41:09:4f:cf:c6:ce:32:85:80:2c:
        42:36:64:91:6c:9e:45:23:6c:6f:80:7c:6c:0d:b2:e8:34:b6:
        25:b0:21:1e:56:f9:0c:5a:a3:b3:b5:14:03:f0:78:a6:9d:22:
        5e:a3
-----BEGIN CERTIFICATE-----
MIIDQDCCAqmgAwIBAgIBBTANBgkqhkiG9w0BAQUFADAwMQswCQYDVQQGEwJJTjES
MBAGA1UECBMJS2FybmF0YWthMQ0wCwYDVQQKEwRTYWhpMB4XDTE1MDQwNzA5NDEx
NVoXDTI1MDQwNDA5NDExNVowWDELMAkGA1UEBhMCSU4xEjAQBgNVBAgTCUthcm5h
dGFrYTENMAsGA1UEChMEU2FoaTENMAsGA1UECxMEU2FoaTEXMBUGA1UEAxMOd3d3
Lmdvb2dsZS5jb20wggEiMA0GCSqGSIb3DQEBAQUAA4IBDwAwggEKAoIBAQCaBAed
9BrIKEOz1uDtPMAAAqRkPw23wKz5fR/rD0aGjq6ZkLqUjFU2x5jojuIcY7m6joUg
Nnb9oZxuXaBV4m81vmS9Jb3eVhlnaT/9x+nhLSKklVeIxHqWLjbB9yRvZaG9co4z
oY0pQwJia7CsxtnPzKHXx5YSDvmXO7KHVWN4/NwTGtOnQ03REgMsqoGkXGdEYC1t
cbtWyv/6NMBEjOX/lDj1pW0lH06VdAGOEtJRAwR4jzKo7kJD4dIKG1S69+qIH4vh
ELpyOUzqsOAd+nFRt8fL7qZ+A+WHBsk5k9NHTcJLwV+XPxyZLTKfWeeDFBwsBr/X
583FzxahSuJ7Ws+xAgMBAAGjgb0wgbowCQYDVR0TBAIwADAsBglghkgBhvhCAQ0E
HxYdT3BlblNTTCBHZW5lcmF0ZWQgQ2VydGlmaWNhdGUwHQYDVR0OBBYEFI2+o9N2
1dKtNjqyUGSqxfx2m59aMGAGA1UdIwRZMFeAFAkvrH4zv04Ah+tfPwGorIHuPhkm
oTSkMjAwMQswCQYDVQQGEwJJTjESMBAGA1UECBMJS2FybmF0YWthMQ0wCwYDVQQK
EwRTYWhpggkA1ox4XN/1nqMwDQYJKoZIhvcNAQEFBQADgYEA0OdmogA3i4p1sQ3G
k0x6jr8m4cSpMe5r1WAvNZj4tOCc5WKY1Pb7DneTRjJlCFGXI/1f7fv4lEaZpXd2
NsekAzDyBapPLrKhuCGlkedILC1BCU/Pxs4yhYAsQjZkkWyeRSNsb4B8bA2y6DS2
JbAhHlb5DFqjs7UUA/B4pp0iXqM=
-----END CERTIFICATE-----
