Certificate:
    Data:
        Version: 3 (0x2)
        Serial Number: 6 (0x6)
        Signature Algorithm: sha1WithRSAEncryption
        Issuer: C=IN, ST=Karnataka, O=Sahi
        Validity
            Not Before: Apr  7 09:41:18 2015 GMT
            Not After : Apr  4 09:41:18 2025 GMT
        Subject: C=IN, ST=Karnataka, O=Sahi, OU=Sahi, CN=translate.googleapis.com
        Subject Public Key Info:
            Public Key Algorithm: rsaEncryption
            RSA Public Key: (2048 bit)
                Modulus (2048 bit):
                    00:8a:0c:92:51:1e:30:e0:a8:6f:f2:c7:0e:3b:fc:
                    d0:12:4c:16:2e:7d:d8:54:72:fd:66:55:75:42:42:
                    e6:fb:36:d5:df:b3:3f:45:6f:e8:03:42:45:cc:2d:
                    6b:b3:9b:c6:49:a0:88:07:66:75:aa:62:f3:3b:a0:
                    04:59:2d:af:2d:92:3d:50:c3:dc:df:e3:2b:b5:5e:
                    c8:0c:07:b7:f5:b0:dd:ef:05:5b:00:a0:98:5e:fc:
                    d3:79:f6:43:f9:e4:83:a3:87:05:2f:38:77:1c:4d:
                    73:33:4a:73:f7:2a:56:d6:22:d4:3a:45:06:0e:e3:
                    1e:78:78:49:06:ef:ca:3a:0b:f6:5f:ec:3e:1f:f7:
                    4d:47:6b:18:ac:be:63:01:00:9a:67:5d:bf:79:ac:
                    1f:ec:f6:e6:a5:e0:a7:d4:25:6c:7c:f8:dc:cb:8b:
                    84:97:81:7e:77:9e:d6:9c:99:3c:86:2b:7b:59:ab:
                    70:70:c3:f2:43:98:18:6f:fd:ea:7c:8a:9c:0b:e5:
                    9e:e8:a3:bd:28:55:e7:bd:47:a5:bf:02:bc:41:b4:
                    e8:26:f9:48:1d:4b:8e:27:df:ad:38:8d:64:67:a9:
                    34:a6:bc:c0:31:58:c4:6f:bd:3a:d9:3f:e1:a6:00:
                    b5:a9:23:f9:69:3c:09:0b:10:ad:57:fd:29:99:ac:
                    ee:73
                Exponent: 65537 (0x10001)
        X509v3 extensions:
            X509v3 Basic Constraints: 
                CA:FALSE
            Netscape Comment: 
                OpenSSL Generated Certificate
            X509v3 Subject Key Identifier: 
                86:85:8D:38:67:3C:47:67:25:F6:A1:C9:79:4C:97:38:36:6C:99:F5
            X509v3 Authority Key Identifier: 
                keyid:09:2F:AC:7E:33:BF:4E:00:87:EB:5F:3F:01:A8:AC:81:EE:3E:19:26
                DirName:/C=IN/ST=Karnataka/O=Sahi
                serial:D6:8C:78:5C:DF:F5:9E:A3

    Signature Algorithm: sha1WithRSAEncryption
        cd:da:7d:12:bb:45:2f:f8:20:ba:ff:0d:6e:cb:70:e9:35:33:
        e8:71:53:ac:b1:1c:80:8c:48:c2:cb:87:13:a3:86:a1:c7:23:
        f7:9f:3d:5f:7b:fe:2c:ed:ca:db:97:ed:25:6e:c3:81:06:c0:
        60:10:b7:19:64:41:84:cd:9f:47:dc:eb:3f:e8:76:9c:d2:24:
        f5:e4:2c:63:31:89:a5:4e:ac:c8:3b:8a:ee:37:4e:ff:a5:df:
        93:28:56:2f:9a:c3:00:e5:02:32:4a:59:87:dd:9b:e3:92:1e:
        00:40:5d:1b:0f:1e:c9:75:99:4f:d2:4c:5c:ab:02:94:55:24:
        36:26
-----BEGIN CERTIFICATE-----
MIIDSjCCArOgAwIBAgIBBjANBgkqhkiG9w0BAQUFADAwMQswCQYDVQQGEwJJTjES
MBAGA1UECBMJS2FybmF0YWthMQ0wCwYDVQQKEwRTYWhpMB4XDTE1MDQwNzA5NDEx
OFoXDTI1MDQwNDA5NDExOFowYjELMAkGA1UEBhMCSU4xEjAQBgNVBAgTCUthcm5h
dGFrYTENMAsGA1UEChMEU2FoaTENMAsGA1UECxMEU2FoaTEhMB8GA1UEAxMYdHJh
bnNsYXRlLmdvb2dsZWFwaXMuY29tMIIBIjANBgkqhkiG9w0BAQEFAAOCAQ8AMIIB
CgKCAQEAigySUR4w4Khv8scOO/zQEkwWLn3YVHL9ZlV1QkLm+zbV37M/RW/oA0JF
zC1rs5vGSaCIB2Z1qmLzO6AEWS2vLZI9UMPc3+MrtV7IDAe39bDd7wVbAKCYXvzT
efZD+eSDo4cFLzh3HE1zM0pz9ypW1iLUOkUGDuMeeHhJBu/KOgv2X+w+H/dNR2sY
rL5jAQCaZ12/eawf7PbmpeCn1CVsfPjcy4uEl4F+d57WnJk8hit7WatwcMPyQ5gY
b/3qfIqcC+We6KO9KFXnvUelvwK8QbToJvlIHUuOJ9+tOI1kZ6k0przAMVjEb706
2T/hpgC1qSP5aTwJCxCtV/0pmazucwIDAQABo4G9MIG6MAkGA1UdEwQCMAAwLAYJ
YIZIAYb4QgENBB8WHU9wZW5TU0wgR2VuZXJhdGVkIENlcnRpZmljYXRlMB0GA1Ud
DgQWBBSGhY04ZzxHZyX2ocl5TJc4NmyZ9TBgBgNVHSMEWTBXgBQJL6x+M79OAIfr
Xz8BqKyB7j4ZJqE0pDIwMDELMAkGA1UEBhMCSU4xEjAQBgNVBAgTCUthcm5hdGFr
YTENMAsGA1UEChMEU2FoaYIJANaMeFzf9Z6jMA0GCSqGSIb3DQEBBQUAA4GBAM3a
fRK7RS/4ILr/DW7LcOk1M+hxU6yxHICMSMLLhxOjhqHHI/efPV97/iztytuX7SVu
w4EGwGAQtxlkQYTNn0fc6z/odpzSJPXkLGMxiaVOrMg7iu43Tv+l35MoVi+awwDl
AjJKWYfdm+OSHgBAXRsPHsl1mU/STFyrApRVJDYm
-----END CERTIFICATE-----
