Certificate:
    Data:
        Version: 3 (0x2)
        Serial Number: 7 (0x7)
        Signature Algorithm: sha1WithRSAEncryption
        Issuer: C=IN, ST=Karnataka, O=Sahi
        Validity
            Not Before: Apr  7 09:41:56 2015 GMT
            Not After : Apr  4 09:41:56 2025 GMT
        Subject: C=IN, ST=Karnataka, O=Sahi, OU=Sahi, CN=www.gstatic.com
        Subject Public Key Info:
            Public Key Algorithm: rsaEncryption
            RSA Public Key: (2048 bit)
                Modulus (2048 bit):
                    00:cc:85:fa:49:32:67:9b:43:55:58:ca:ba:2c:d4:
                    99:c9:ac:95:6c:f8:00:87:b3:b5:85:08:e3:30:06:
                    2d:4e:70:54:3e:14:57:a5:12:20:cf:c6:d8:9e:73:
                    1d:89:29:bc:60:25:80:9d:56:44:c2:fa:3c:e3:a5:
                    b2:00:75:5e:6a:70:ee:67:e8:7c:bb:a5:2a:18:0c:
                    1d:3b:a9:ba:3a:46:e2:b8:53:63:a2:46:1c:42:6c:
                    39:cc:9f:e9:ee:49:cb:a2:30:c8:c4:51:29:25:80:
                    2a:97:83:96:87:d2:00:f9:1b:60:e5:d4:53:26:4d:
                    37:c1:7a:85:18:37:78:15:a9:f2:bd:ba:32:b7:7a:
                    42:5a:31:15:fa:d9:d8:b9:07:d9:62:86:e2:a8:78:
                    4b:41:0a:e2:f8:14:7d:e8:f7:dc:8a:11:12:ab:19:
                    66:29:39:3a:3d:1e:3e:fd:25:93:45:8b:19:1b:2e:
                    ff:28:79:ea:88:0b:91:ec:9d:31:60:fe:52:bd:ae:
                    1f:15:a3:9d:76:37:c3:f2:43:32:78:5b:83:8a:83:
                    06:00:af:02:33:8f:85:d5:c0:11:56:f1:bb:88:67:
                    73:aa:d9:9e:a2:8e:ac:f8:e3:7a:ac:b7:34:69:13:
                    ac:6c:0d:e2:1a:74:30:9b:3e:9f:c5:22:80:66:f0:
                    fa:87
                Exponent: 65537 (0x10001)
        X509v3 extensions:
            X509v3 Basic Constraints: 
                CA:FALSE
            Netscape Comment: 
                OpenSSL Generated Certificate
            X509v3 Subject Key Identifier: 
                8A:0E:56:8D:5D:7D:8F:CF:73:24:3B:F0:5E:16:34:0B:25:2D:36:3B
            X509v3 Authority Key Identifier: 
                keyid:09:2F:AC:7E:33:BF:4E:00:87:EB:5F:3F:01:A8:AC:81:EE:3E:19:26
                DirName:/C=IN/ST=Karnataka/O=Sahi
                serial:D6:8C:78:5C:DF:F5:9E:A3

    Signature Algorithm: sha1WithRSAEncryption
        5e:d0:be:e5:0d:a8:75:03:a9:5c:e0:b8:db:ba:2f:4c:07:6e:
        bf:80:77:2d:4b:ce:f8:81:9b:8f:8e:71:6e:84:f8:a5:c2:c1:
        44:0d:d5:01:43:2e:16:a8:d5:0e:a3:86:c5:d7:43:6e:af:77:
        85:41:54:14:13:c9:76:15:b2:42:bb:28:9d:42:01:14:de:be:
        71:c0:cd:86:db:ae:6e:79:d6:e8:62:1e:9c:9d:71:bc:cb:5b:
        d8:f1:40:c4:02:ec:cc:d2:9d:66:c0:1e:d9:f4:81:d6:d8:60:
        c9:d5:01:c6:b7:7d:9b:33:d3:00:eb:6f:ae:f6:08:ba:95:49:
        16:7c
-----BEGIN CERTIFICATE-----
MIIDQTCCAqqgAwIBAgIBBzANBgkqhkiG9w0BAQUFADAwMQswCQYDVQQGEwJJTjES
MBAGA1UECBMJS2FybmF0YWthMQ0wCwYDVQQKEwRTYWhpMB4XDTE1MDQwNzA5NDE1
NloXDTI1MDQwNDA5NDE1NlowWTELMAkGA1UEBhMCSU4xEjAQBgNVBAgTCUthcm5h
dGFrYTENMAsGA1UEChMEU2FoaTENMAsGA1UECxMEU2FoaTEYMBYGA1UEAxMPd3d3
LmdzdGF0aWMuY29tMIIBIjANBgkqhkiG9w0BAQEFAAOCAQ8AMIIBCgKCAQEAzIX6
STJnm0NVWMq6LNSZyayVbPgAh7O1hQjjMAYtTnBUPhRXpRIgz8bYnnMdiSm8YCWA
nVZEwvo846WyAHVeanDuZ+h8u6UqGAwdO6m6OkbiuFNjokYcQmw5zJ/p7knLojDI
xFEpJYAql4OWh9IA+Rtg5dRTJk03wXqFGDd4Fanyvboyt3pCWjEV+tnYuQfZYobi
qHhLQQri+BR96PfcihESqxlmKTk6PR4+/SWTRYsZGy7/KHnqiAuR7J0xYP5Sva4f
FaOddjfD8kMyeFuDioMGAK8CM4+F1cARVvG7iGdzqtmeoo6s+ON6rLc0aROsbA3i
GnQwmz6fxSKAZvD6hwIDAQABo4G9MIG6MAkGA1UdEwQCMAAwLAYJYIZIAYb4QgEN
BB8WHU9wZW5TU0wgR2VuZXJhdGVkIENlcnRpZmljYXRlMB0GA1UdDgQWBBSKDlaN
XX2Pz3MkO/BeFjQLJS02OzBgBgNVHSMEWTBXgBQJL6x+M79OAIfrXz8BqKyB7j4Z
JqE0pDIwMDELMAkGA1UEBhMCSU4xEjAQBgNVBAgTCUthcm5hdGFrYTENMAsGA1UE
ChMEU2FoaYIJANaMeFzf9Z6jMA0GCSqGSIb3DQEBBQUAA4GBAF7QvuUNqHUDqVzg
uNu6L0wHbr+Ady1LzviBm4+OcW6E+KXCwUQN1QFDLhao1Q6jhsXXQ26vd4VBVBQT
yXYVskK7KJ1CARTevnHAzYbbrm551uhiHpydcbzLW9jxQMQC7MzSnWbAHtn0gdbY
YMnVAca3fZsz0wDrb672CLqVSRZ8
-----END CERTIFICATE-----
