Certificate:
    Data:
        Version: 3 (0x2)
        Serial Number: 8 (0x8)
        Signature Algorithm: sha1WithRSAEncryption
        Issuer: C=IN, ST=Karnataka, O=Sahi
        Validity
            Not Before: Apr  7 09:44:18 2015 GMT
            Not After : Apr  4 09:44:18 2025 GMT
        Subject: C=IN, ST=Karnataka, O=Sahi, OU=Sahi, CN=safebrowsing.google.com
        Subject Public Key Info:
            Public Key Algorithm: rsaEncryption
            RSA Public Key: (2048 bit)
                Modulus (2048 bit):
                    00:80:8c:e5:2c:6f:42:34:20:7d:ff:89:5e:0e:61:
                    50:71:0f:5f:39:80:f2:48:85:1b:db:dd:e8:74:8f:
                    b9:7e:47:d4:e0:30:3d:1d:17:36:38:13:88:49:0c:
                    bb:38:09:cd:34:bb:ea:18:7d:3a:de:ab:20:9f:0d:
                    27:74:e6:a2:94:8e:79:6a:71:35:b9:d5:63:ac:07:
                    af:14:fc:ff:24:13:a6:f3:09:41:a5:7a:7a:3e:a6:
                    fd:78:1e:e8:01:48:f2:83:27:72:10:40:3e:91:d3:
                    08:17:2a:aa:c3:9e:bc:0b:0e:e5:6c:1f:01:83:0d:
                    e3:77:cb:6b:4e:99:1f:10:df:b0:8b:75:32:f6:06:
                    a1:0d:f5:a8:3c:d3:a2:83:a0:b0:5a:df:0d:84:a5:
                    f1:17:f2:c5:c6:f7:0c:d4:6b:89:44:38:97:e9:95:
                    a1:82:1d:26:71:2c:24:b1:61:50:48:79:85:b7:14:
                    21:07:eb:01:22:3d:d8:21:3d:31:c3:e0:34:d9:d6:
                    f8:9c:b8:8c:d3:b6:c2:35:d9:fa:d7:e8:be:c9:fc:
                    2a:a6:20:45:19:56:a5:79:76:24:53:bf:52:79:10:
                    01:76:c9:85:55:fc:ab:a9:57:99:00:ac:79:96:36:
                    ef:22:64:43:56:bd:6f:04:5a:65:b9:20:a0:40:bb:
                    01:3b
                Exponent: 65537 (0x10001)
        X509v3 extensions:
            X509v3 Basic Constraints: 
                CA:FALSE
            Netscape Comment: 
                OpenSSL Generated Certificate
            X509v3 Subject Key Identifier: 
                FA:9B:FE:7D:88:D7:20:C1:52:E3:32:D8:A3:12:ED:C1:89:E1:BB:B6
            X509v3 Authority Key Identifier: 
                keyid:09:2F:AC:7E:33:BF:4E:00:87:EB:5F:3F:01:A8:AC:81:EE:3E:19:26
                DirName:/C=IN/ST=Karnataka/O=Sahi
                serial:D6:8C:78:5C:DF:F5:9E:A3

    Signature Algorithm: sha1WithRSAEncryption
        14:0f:3f:0a:a1:3d:18:46:4f:a1:d6:1f:21:51:5e:bc:1a:8d:
        62:b0:e5:1e:4f:1e:be:a9:77:e9:0b:e6:74:5f:15:f5:38:bd:
        8d:23:38:7a:66:0c:c7:d2:5a:8a:36:7b:3c:b5:83:fd:a5:28:
        9c:db:2d:0b:36:b7:0a:df:5b:c2:27:31:9b:fe:e2:48:70:23:
        c2:50:94:74:8e:ea:9c:79:c7:00:59:01:ef:6c:64:fa:7d:e9:
        a6:43:e9:51:e5:9a:fb:fe:d0:45:c4:ab:80:39:ed:b3:51:6d:
        cf:1a:0c:4d:34:82:8a:79:b5:2d:26:cf:82:33:3d:90:c2:b6:
        25:78
-----BEGIN CERTIFICATE-----
MIIDSTCCArKgAwIBAgIBCDANBgkqhkiG9w0BAQUFADAwMQswCQYDVQQGEwJJTjES
MBAGA1UECBMJS2FybmF0YWthMQ0wCwYDVQQKEwRTYWhpMB4XDTE1MDQwNzA5NDQx
OFoXDTI1MDQwNDA5NDQxOFowYTELMAkGA1UEBhMCSU4xEjAQBgNVBAgTCUthcm5h
dGFrYTENMAsGA1UEChMEU2FoaTENMAsGA1UECxMEU2FoaTEgMB4GA1UEAxMXc2Fm
ZWJyb3dzaW5nLmdvb2dsZS5jb20wggEiMA0GCSqGSIb3DQEBAQUAA4IBDwAwggEK
AoIBAQCAjOUsb0I0IH3/iV4OYVBxD185gPJIhRvb3eh0j7l+R9TgMD0dFzY4E4hJ
DLs4Cc00u+oYfTreqyCfDSd05qKUjnlqcTW51WOsB68U/P8kE6bzCUGleno+pv14
HugBSPKDJ3IQQD6R0wgXKqrDnrwLDuVsHwGDDeN3y2tOmR8Q37CLdTL2BqEN9ag8
06KDoLBa3w2EpfEX8sXG9wzUa4lEOJfplaGCHSZxLCSxYVBIeYW3FCEH6wEiPdgh
PTHD4DTZ1vicuIzTtsI12frX6L7J/CqmIEUZVqV5diRTv1J5EAF2yYVV/KupV5kA
rHmWNu8iZENWvW8EWmW5IKBAuwE7AgMBAAGjgb0wgbowCQYDVR0TBAIwADAsBglg
hkgBhvhCAQ0EHxYdT3BlblNTTCBHZW5lcmF0ZWQgQ2VydGlmaWNhdGUwHQYDVR0O
BBYEFPqb/n2I1yDBUuMy2KMS7cGJ4bu2MGAGA1UdIwRZMFeAFAkvrH4zv04Ah+tf
PwGorIHuPhkmoTSkMjAwMQswCQYDVQQGEwJJTjESMBAGA1UECBMJS2FybmF0YWth
MQ0wCwYDVQQKEwRTYWhpggkA1ox4XN/1nqMwDQYJKoZIhvcNAQEFBQADgYEAFA8/
CqE9GEZPodYfIVFevBqNYrDlHk8evql36QvmdF8V9Ti9jSM4emYMx9JaijZ7PLWD
/aUonNstCza3Ct9bwicxm/7iSHAjwlCUdI7qnHnHAFkB72xk+n3ppkPpUeWa+/7Q
RcSrgDnts1FtzxoMTTSCinm1LSbPgjM9kMK2JXg=
-----END CERTIFICATE-----
