Certificate:
    Data:
        Version: 3 (0x2)
        Serial Number: 9 (0x9)
        Signature Algorithm: sha1WithRSAEncryption
        Issuer: C=IN, ST=Karnataka, O=Sahi
        Validity
            Not Before: Apr  7 09:44:40 2015 GMT
            Not After : Apr  4 09:44:40 2025 GMT
        Subject: C=IN, ST=Karnataka, O=Sahi, OU=Sahi, CN=alt2-safebrowsing.google.com
        Subject Public Key Info:
            Public Key Algorithm: rsaEncryption
            RSA Public Key: (2048 bit)
                Modulus (2048 bit):
                    00:92:18:8a:28:55:7a:d9:18:c7:d9:d4:64:71:6e:
                    27:36:20:01:e0:01:de:5a:e3:02:a8:f2:62:4e:11:
                    9d:39:cf:0e:68:17:a2:de:f0:59:3f:43:5c:44:ed:
                    26:59:4a:8b:10:d0:ce:3a:36:18:92:fe:a6:c6:75:
                    83:4f:7a:d6:6c:7e:91:9f:ad:8e:85:c9:f5:3f:66:
                    b3:11:eb:6c:44:f0:21:ec:18:c3:99:be:44:f1:1a:
                    31:af:b5:af:4e:a0:6e:e8:b7:f8:cb:b3:f7:82:55:
                    ee:4b:66:e8:e3:66:63:17:9d:7c:4e:69:d6:29:a2:
                    a1:e7:b4:9f:e7:26:a5:7e:97:05:e6:f8:4a:54:87:
                    57:01:52:ec:59:82:41:4c:19:f5:4c:6f:dd:5b:bf:
                    8e:97:36:d6:29:2d:06:5c:43:48:a0:23:99:59:76:
                    bd:d2:c3:ce:03:39:9e:f8:d4:0b:5d:5a:9d:51:72:
                    98:99:7a:10:7a:78:da:93:bb:e6:81:f1:53:73:35:
                    df:ab:9e:8b:c1:cb:67:1a:1e:bb:86:13:83:9f:d0:
                    70:fc:40:bb:3e:d2:e0:d5:cc:1a:f2:46:22:6b:fb:
                    3e:a9:f1:44:45:c8:18:52:ca:d9:4c:6b:da:d9:d3:
                    c2:f2:28:bd:3c:ff:6c:66:3e:55:57:3e:82:f1:ed:
                    23:99
                Exponent: 65537 (0x10001)
        X509v3 extensions:
            X509v3 Basic Constraints: 
                CA:FALSE
            Netscape Comment: 
                OpenSSL Generated Certificate
            X509v3 Subject Key Identifier: 
                D9:E0:85:D5:61:51:08:C5:ED:8E:49:18:A1:A9:46:F9:E2:B0:57:BB
            X509v3 Authority Key Identifier: 
                keyid:09:2F:AC:7E:33:BF:4E:00:87:EB:5F:3F:01:A8:AC:81:EE:3E:19:26
                DirName:/C=IN/ST=Karnataka/O=Sahi
                serial:D6:8C:78:5C:DF:F5:9E:A3

    Signature Algorithm: sha1WithRSAEncryption
        58:7a:d0:2c:41:7f:03:aa:96:58:0f:49:c1:7f:9b:32:69:1e:
        d9:ab:b4:63:28:27:56:74:d7:51:97:a6:f3:97:d9:bf:04:9c:
        97:c3:de:fe:fb:f7:b4:b0:54:78:42:52:df:10:eb:f5:df:9e:
        01:56:71:a5:77:76:1d:ed:ea:55:d7:4a:60:0c:76:ad:de:8f:
        34:fc:a3:94:08:dc:c9:d0:76:0d:89:7c:62:bc:02:49:51:4a:
        43:a5:ab:b6:06:7c:9f:2d:32:48:8d:76:6c:61:b8:39:aa:45:
        d4:ab:b1:c9:ba:0d:a6:0d:a0:ed:7a:a3:8c:5c:a4:fd:82:76:
        d4:eb
-----BEGIN CERTIFICATE-----
MIIDTjCCAregAwIBAgIBCTANBgkqhkiG9w0BAQUFADAwMQswCQYDVQQGEwJJTjES
MBAGA1UECBMJS2FybmF0YWthMQ0wCwYDVQQKEwRTYWhpMB4XDTE1MDQwNzA5NDQ0
MFoXDTI1MDQwNDA5NDQ0MFowZjELMAkGA1UEBhMCSU4xEjAQBgNVBAgTCUthcm5h
dGFrYTENMAsGA1UEChMEU2FoaTENMAsGA1UECxMEU2FoaTElMCMGA1UEAxMcYWx0
Mi1zYWZlYnJvd3NpbmcuZ29vZ2xlLmNvbTCCASIwDQYJKoZIhvcNAQEBBQADggEP
ADCCAQoCggEBAJIYiihVetkYx9nUZHFuJzYgAeAB3lrjAqjyYk4RnTnPDmgXot7w
WT9DXETtJllKixDQzjo2GJL+psZ1g0961mx+kZ+tjoXJ9T9msxHrbETwIewYw5m+
RPEaMa+1r06gbui3+Muz94JV7ktm6ONmYxedfE5p1imioee0n+cmpX6XBeb4SlSH
VwFS7FmCQUwZ9Uxv3Vu/jpc21iktBlxDSKAjmVl2vdLDzgM5nvjUC11anVFymJl6
EHp42pO75oHxU3M136uei8HLZxoeu4YTg5/QcPxAuz7S4NXMGvJGImv7PqnxREXI
GFLK2Uxr2tnTwvIovTz/bGY+VVc+gvHtI5kCAwEAAaOBvTCBujAJBgNVHRMEAjAA
MCwGCWCGSAGG+EIBDQQfFh1PcGVuU1NMIEdlbmVyYXRlZCBDZXJ0aWZpY2F0ZTAd
BgNVHQ4EFgQU2eCF1WFRCMXtjkkYoalG+eKwV7swYAYDVR0jBFkwV4AUCS+sfjO/
TgCH618/Aaisge4+GSahNKQyMDAxCzAJBgNVBAYTAklOMRIwEAYDVQQIEwlLYXJu
YXRha2ExDTALBgNVBAoTBFNhaGmCCQDWjHhc3/WeozANBgkqhkiG9w0BAQUFAAOB
gQBYetAsQX8DqpZYD0nBf5syaR7Zq7RjKCdWdNdRl6bzl9m/BJyXw97++/e0sFR4
QlLfEOv1354BVnGld3Yd7epV10pgDHat3o80/KOUCNzJ0HYNiXxivAJJUUpDpau2
BnyfLTJIjXZsYbg5qkXUq7HJug2mDaDteqOMXKT9gnbU6w==
-----END CERTIFICATE-----
