Certificate:
    Data:
        Version: 3 (0x2)
        Serial Number: 10 (0xa)
        Signature Algorithm: sha1WithRSAEncryption
        Issuer: C=IN, ST=Karnataka, O=Sahi
        Validity
            Not Before: Apr  7 10:15:10 2015 GMT
            Not After : Apr  4 10:15:10 2025 GMT
        Subject: C=IN, ST=Karnataka, O=Sahi, OU=Sahi, CN=sahi.example.com
        Subject Public Key Info:
            Public Key Algorithm: rsaEncryption
            RSA Public Key: (2048 bit)
                Modulus (2048 bit):
                    00:af:0b:b9:a7:94:a5:85:53:26:b8:92:6e:78:79:
                    e2:a8:59:dc:76:ff:81:3f:84:e4:aa:5a:14:66:98:
                    93:e7:38:c3:8e:b0:be:d2:5a:02:1e:35:b0:10:8b:
                    d8:b3:5a:e8:85:66:4b:ee:86:d5:62:c4:3f:36:33:
                    2c:e0:56:27:ff:88:43:50:11:2e:a6:94:7c:99:7d:
                    17:bd:a6:3a:92:ff:2b:0a:2d:31:f9:82:0e:c8:91:
                    f7:4e:71:83:a1:6e:d7:64:51:59:f4:e7:cd:cc:91:
                    3e:7e:4d:eb:bf:29:ad:f8:6f:98:02:cb:b2:b0:44:
                    b8:3f:ae:17:80:df:1a:87:7f:65:d9:a2:5f:ba:77:
                    a1:96:5f:1a:ba:b2:fc:72:a6:c4:52:25:63:89:6b:
                    81:24:77:96:60:e6:32:08:82:f8:89:1b:e8:41:2a:
                    4f:0a:93:bc:e7:18:79:13:54:08:f2:c9:40:aa:7d:
                    ec:36:37:1e:2f:90:96:bb:5d:39:1d:f2:c1:80:af:
                    6a:b5:5e:80:20:00:89:50:c8:e5:ee:c7:02:b9:a3:
                    ac:77:2a:1b:7b:cf:78:81:00:04:ca:2c:46:87:91:
                    ff:60:29:6f:9c:85:ed:f7:26:2f:23:45:6e:fd:6d:
                    2a:df:a8:24:63:bd:54:9d:16:38:ca:6f:2b:d9:f8:
                    ee:c7
                Exponent: 65537 (0x10001)
        X509v3 extensions:
            X509v3 Basic Constraints: 
                CA:FALSE
            Netscape Comment: 
                OpenSSL Generated Certificate
            X509v3 Subject Key Identifier: 
                0A:E6:C1:18:29:15:F2:3F:29:ED:99:20:EE:08:0C:67:BF:30:5C:BD
            X509v3 Authority Key Identifier: 
                keyid:09:2F:AC:7E:33:BF:4E:00:87:EB:5F:3F:01:A8:AC:81:EE:3E:19:26
                DirName:/C=IN/ST=Karnataka/O=Sahi
                serial:D6:8C:78:5C:DF:F5:9E:A3

    Signature Algorithm: sha1WithRSAEncryption
        9d:99:2e:81:c0:6e:68:d7:42:5b:f2:b6:b7:96:35:38:ab:a1:
        1d:ce:c0:81:b7:22:1c:96:13:35:38:15:94:97:36:d1:92:c1:
        ca:e4:13:93:55:40:d1:04:4f:8a:71:03:0f:bd:cf:2d:11:3e:
        1a:45:16:46:1b:13:5c:60:60:63:92:4f:70:f3:ef:42:9e:91:
        5a:de:36:76:8b:29:a1:c1:24:6e:c7:1d:e7:6b:78:61:f5:95:
        cd:22:d4:92:10:e5:0a:ca:eb:f1:d6:6d:c6:7e:cc:e0:1b:56:
        3a:f7:06:a7:f7:3f:5f:c5:7b:e9:bd:ae:f1:1a:16:65:46:c5:
        7e:e8
-----BEGIN CERTIFICATE-----
MIIDQjCCAqugAwIBAgIBCjANBgkqhkiG9w0BAQUFADAwMQswCQYDVQQGEwJJTjES
MBAGA1UECBMJS2FybmF0YWthMQ0wCwYDVQQKEwRTYWhpMB4XDTE1MDQwNzEwMTUx
MFoXDTI1MDQwNDEwMTUxMFowWjELMAkGA1UEBhMCSU4xEjAQBgNVBAgTCUthcm5h
dGFrYTENMAsGA1UEChMEU2FoaTENMAsGA1UECxMEU2FoaTEZMBcGA1UEAxMQc2Fo
aS5leGFtcGxlLmNvbTCCASIwDQYJKoZIhvcNAQEBBQADggEPADCCAQoCggEBAK8L
uaeUpYVTJriSbnh54qhZ3Hb/gT+E5KpaFGaYk+c4w46wvtJaAh41sBCL2LNa6IVm
S+6G1WLEPzYzLOBWJ/+IQ1ARLqaUfJl9F72mOpL/KwotMfmCDsiR905xg6Fu12RR
WfTnzcyRPn5N678prfhvmALLsrBEuD+uF4DfGod/ZdmiX7p3oZZfGrqy/HKmxFIl
Y4lrgSR3lmDmMgiC+Ikb6EEqTwqTvOcYeRNUCPLJQKp97DY3Hi+QlrtdOR3ywYCv
arVegCAAiVDI5e7HArmjrHcqG3vPeIEABMosRoeR/2Apb5yF7fcmLyNFbv1tKt+o
JGO9VJ0WOMpvK9n47scCAwEAAaOBvTCBujAJBgNVHRMEAjAAMCwGCWCGSAGG+EIB
DQQfFh1PcGVuU1NMIEdlbmVyYXRlZCBDZXJ0aWZpY2F0ZTAdBgNVHQ4EFgQUCubB
GCkV8j8p7Zkg7ggMZ78wXL0wYAYDVR0jBFkwV4AUCS+sfjO/TgCH618/Aaisge4+
GSahNKQyMDAxCzAJBgNVBAYTAklOMRIwEAYDVQQIEwlLYXJuYXRha2ExDTALBgNV
BAoTBFNhaGmCCQDWjHhc3/WeozANBgkqhkiG9w0BAQUFAAOBgQCdmS6BwG5o10Jb
8ra3ljU4q6EdzsCBtyIclhM1OBWUlzbRksHK5BOTVUDRBE+KcQMPvc8tET4aRRZG
GxNcYGBjkk9w8+9CnpFa3jZ2iymhwSRuxx3na3hh9ZXNItSSEOUKyuvx1m3Gfszg
G1Y69wan9z9fxXvpva7xGhZlRsV+6A==
-----END CERTIFICATE-----
