Certificate:
    Data:
        Version: 3 (0x2)
        Serial Number: 11 (0xb)
        Signature Algorithm: sha1WithRSAEncryption
        Issuer: C=IN, ST=Karnataka, O=Sahi
        Validity
            Not Before: Apr  8 01:43:14 2015 GMT
            Not After : Apr  5 01:43:14 2025 GMT
        Subject: C=IN, ST=Karnataka, O=Sahi, OU=Sahi, CN=apis.google.com
        Subject Public Key Info:
            Public Key Algorithm: rsaEncryption
            RSA Public Key: (2048 bit)
                Modulus (2048 bit):
                    00:ab:e4:a3:f1:1d:5b:f7:3e:1b:f7:f9:0c:3a:07:
                    14:64:c2:e9:85:a7:e9:1f:67:b2:1d:7f:7e:57:99:
                    6c:29:97:43:60:e7:ee:d4:94:7a:60:db:82:fc:9b:
                    96:92:f2:1d:5c:59:20:55:78:b4:70:19:48:06:e2:
                    db:29:b5:6c:9c:6e:51:0f:68:19:7a:50:91:a0:04:
                    31:fd:cd:e9:f9:8d:27:0f:e2:15:d0:74:14:70:02:
                    89:0f:cf:18:4f:04:d6:24:94:95:b2:a2:6a:9c:42:
                    a8:d2:e7:5d:dc:22:f6:cb:39:35:50:74:98:4b:b1:
                    0c:a1:9d:06:c7:10:50:87:9d:44:0e:e4:c7:75:6d:
                    ee:5c:40:95:67:d0:41:e5:6e:c8:6f:8c:a4:50:e3:
                    60:f3:50:f1:32:f5:c0:29:60:9f:e3:a7:30:e7:e6:
                    fd:8b:24:e6:2d:46:ad:a3:ff:f1:e2:89:44:f9:a4:
                    01:99:ef:7b:49:29:33:36:a2:38:93:70:d9:ce:6a:
                    03:0c:27:34:63:92:cd:ad:2e:9b:c5:8d:87:9f:08:
                    dc:17:9d:72:de:1c:e9:7f:e0:f3:ab:66:80:25:09:
                    08:90:c7:61:71:5a:8c:b3:19:54:09:86:3f:10:20:
                    c1:f8:89:f3:85:fa:c9:5c:f8:15:89:d8:31:1d:88:
                    10:5d
                Exponent: 65537 (0x10001)
        X509v3 extensions:
            X509v3 Basic Constraints: 
                CA:FALSE
            Netscape Comment: 
                OpenSSL Generated Certificate
            X509v3 Subject Key Identifier: 
                46:C9:19:C0:02:B1:C5:31:FF:0C:19:36:9E:EA:D1:DD:34:7B:45:D0
            X509v3 Authority Key Identifier: 
                keyid:09:2F:AC:7E:33:BF:4E:00:87:EB:5F:3F:01:A8:AC:81:EE:3E:19:26
                DirName:/C=IN/ST=Karnataka/O=Sahi
                serial:D6:8C:78:5C:DF:F5:9E:A3

    Signature Algorithm: sha1WithRSAEncryption
        75:05:40:27:fb:e7:fb:4a:e4:03:ef:55:94:e6:97:79:1d:c2:
        f6:63:fd:65:93:e6:ca:b2:9f:c1:a8:60:70:1f:34:3d:1e:93:
        5f:32:fb:5b:06:51:ef:de:db:b7:5a:f9:0a:fb:5c:a7:0b:e9:
        d1:e7:d7:cb:33:4b:76:fd:22:89:11:9c:67:fd:da:a4:07:6a:
        f4:65:4e:e2:99:ba:a1:ac:ae:1e:ea:07:ad:9a:6b:69:27:70:
        6e:97:d6:63:e9:82:02:76:f2:79:69:35:1e:63:47:fc:7f:63:
        6a:7c:ed:b7:d3:0f:1d:43:14:aa:65:f4:35:01:95:73:af:df:
        ff:d7
-----BEGIN CERTIFICATE-----
MIIDQTCCAqqgAwIBAgIBCzANBgkqhkiG9w0BAQUFADAwMQswCQYDVQQGEwJJTjES
MBAGA1UECBMJS2FybmF0YWthMQ0wCwYDVQQKEwRTYWhpMB4XDTE1MDQwODAxNDMx
NFoXDTI1MDQwNTAxNDMxNFowWTELMAkGA1UEBhMCSU4xEjAQBgNVBAgTCUthcm5h
dGFrYTENMAsGA1UEChMEU2FoaTENMAsGA1UECxMEU2FoaTEYMBYGA1UEAxMPYXBp
cy5nb29nbGUuY29tMIIBIjANBgkqhkiG9w0BAQEFAAOCAQ8AMIIBCgKCAQEAq+Sj
8R1b9z4b9/kMOgcUZMLphafpH2eyHX9+V5lsKZdDYOfu1JR6YNuC/JuWkvIdXFkg
VXi0cBlIBuLbKbVsnG5RD2gZelCRoAQx/c3p+Y0nD+IV0HQUcAKJD88YTwTWJJSV
sqJqnEKo0udd3CL2yzk1UHSYS7EMoZ0GxxBQh51EDuTHdW3uXECVZ9BB5W7Ib4yk
UONg81DxMvXAKWCf46cw5+b9iyTmLUato//x4olE+aQBme97SSkzNqI4k3DZzmoD
DCc0Y5LNrS6bxY2HnwjcF51y3hzpf+Dzq2aAJQkIkMdhcVqMsxlUCYY/ECDB+Inz
hfrJXPgVidgxHYgQXQIDAQABo4G9MIG6MAkGA1UdEwQCMAAwLAYJYIZIAYb4QgEN
BB8WHU9wZW5TU0wgR2VuZXJhdGVkIENlcnRpZmljYXRlMB0GA1UdDgQWBBRGyRnA
ArHFMf8MGTae6tHdNHtF0DBgBgNVHSMEWTBXgBQJL6x+M79OAIfrXz8BqKyB7j4Z
JqE0pDIwMDELMAkGA1UEBhMCSU4xEjAQBgNVBAgTCUthcm5hdGFrYTENMAsGA1UE
ChMEU2FoaYIJANaMeFzf9Z6jMA0GCSqGSIb3DQEBBQUAA4GBAHUFQCf75/tK5APv
VZTml3kdwvZj/WWT5sqyn8GoYHAfND0ek18y+1sGUe/e27da+Qr7XKcL6dHn18sz
S3b9IokRnGf92qQHavRlTuKZuqGsrh7qB62aa2kncG6X1mPpggJ28nlpNR5jR/x/
Y2p87bfTDx1DFKpl9DUBlXOv3//X
-----END CERTIFICATE-----
