Certificate:
    Data:
        Version: 3 (0x2)
        Serial Number: 12 (0xc)
        Signature Algorithm: sha1WithRSAEncryption
        Issuer: C=IN, ST=Karnataka, O=Sahi
        Validity
            Not Before: Apr  8 02:16:50 2015 GMT
            Not After : Apr  5 02:16:50 2025 GMT
        Subject: C=IN, ST=Karnataka, O=Sahi, OU=Sahi, CN=urs.microsoft.com
        Subject Public Key Info:
            Public Key Algorithm: rsaEncryption
            RSA Public Key: (2048 bit)
                Modulus (2048 bit):
                    00:f2:da:e6:60:1d:09:95:7e:2e:7c:3f:b2:1e:75:
                    86:33:b5:01:d3:9e:d1:5e:82:87:a7:cb:33:50:24:
                    35:84:9c:6c:0f:bb:7e:b0:12:ca:08:27:24:ac:5b:
                    cb:e4:38:1f:ec:ce:6b:19:65:8d:5f:68:d1:cd:e2:
                    ae:69:f3:14:63:78:ea:22:76:e9:5d:87:bf:ce:b6:
                    bf:c1:cc:4d:63:6a:96:78:e6:04:54:ae:89:2c:61:
                    f4:cf:10:67:51:41:a5:70:fb:5e:90:6d:36:19:37:
                    d7:3a:87:b7:5c:85:6a:a8:aa:50:56:34:a0:dd:5c:
                    aa:c1:5e:b6:ec:b0:c3:d2:95:b7:bd:05:67:be:93:
                    dc:df:08:9a:59:8f:88:e6:36:c6:45:6e:00:35:27:
                    fd:b1:2c:7d:b4:23:bf:59:4d:ee:bb:a2:fa:79:d6:
                    85:32:c7:15:05:77:f8:57:d5:fe:b6:06:18:4a:fb:
                    d6:7f:f4:e3:be:fd:b8:89:26:5a:37:ce:04:59:ef:
                    17:f8:88:9a:0c:71:0a:d6:2b:11:10:f8:ef:57:a7:
                    4c:b2:e2:d0:7a:c1:2c:f8:bb:bb:13:14:dd:f5:f7:
                    85:d2:1b:0c:a6:cb:c0:1f:0e:0d:89:6a:af:5c:c2:
                    f0:4c:15:b5:87:4f:df:d3:7f:e1:61:ac:5c:e2:5d:
                    00:1d
                Exponent: 65537 (0x10001)
        X509v3 extensions:
            X509v3 Basic Constraints: 
                CA:FALSE
            Netscape Comment: 
                OpenSSL Generated Certificate
            X509v3 Subject Key Identifier: 
                93:80:C3:81:FB:FF:B1:4B:4B:6D:D9:A8:A2:18:F4:72:87:F2:6C:04
            X509v3 Authority Key Identifier: 
                keyid:09:2F:AC:7E:33:BF:4E:00:87:EB:5F:3F:01:A8:AC:81:EE:3E:19:26
                DirName:/C=IN/ST=Karnataka/O=Sahi
                serial:D6:8C:78:5C:DF:F5:9E:A3

    Signature Algorithm: sha1WithRSAEncryption
        c6:5e:77:c0:e4:1b:02:66:ae:61:a5:9c:1f:6c:70:8c:ae:06:
        7e:52:cb:13:68:fe:60:f4:ee:75:42:b5:4f:f0:b3:00:7f:1a:
        b2:c8:2d:2c:4b:ec:96:a8:4e:7b:41:aa:61:b9:27:8b:32:68:
        04:3a:22:e7:d7:48:7d:91:48:be:6c:86:92:f7:e4:bd:3d:27:
        9d:ea:40:03:83:2c:b1:e1:e6:42:1e:1b:c5:36:ec:fc:11:d5:
        a2:3e:f3:60:66:a0:cd:9d:c6:e3:45:43:fe:55:70:fa:3c:95:
        52:92:96:b0:dd:14:0e:8b:7c:ad:80:bd:64:ad:2e:74:d8:fa:
        4a:d0
-----BEGIN CERTIFICATE-----
MIIDQzCCAqygAwIBAgIBDDANBgkqhkiG9w0BAQUFADAwMQswCQYDVQQGEwJJTjES
MBAGA1UECBMJS2FybmF0YWthMQ0wCwYDVQQKEwRTYWhpMB4XDTE1MDQwODAyMTY1
MFoXDTI1MDQwNTAyMTY1MFowWzELMAkGA1UEBhMCSU4xEjAQBgNVBAgTCUthcm5h
dGFrYTENMAsGA1UEChMEU2FoaTENMAsGA1UECxMEU2FoaTEaMBgGA1UEAxMRdXJz
Lm1pY3Jvc29mdC5jb20wggEiMA0GCSqGSIb3DQEBAQUAA4IBDwAwggEKAoIBAQDy
2uZgHQmVfi58P7IedYYztQHTntFegoenyzNQJDWEnGwPu36wEsoIJySsW8vkOB/s
zmsZZY1faNHN4q5p8xRjeOoiduldh7/Otr/BzE1japZ45gRUroksYfTPEGdRQaVw
+16QbTYZN9c6h7dchWqoqlBWNKDdXKrBXrbssMPSlbe9BWe+k9zfCJpZj4jmNsZF
bgA1J/2xLH20I79ZTe67ovp51oUyxxUFd/hX1f62BhhK+9Z/9OO+/biJJlo3zgRZ
7xf4iJoMcQrWKxEQ+O9Xp0yy4tB6wSz4u7sTFN3194XSGwymy8AfDg2Jaq9cwvBM
FbWHT9/Tf+FhrFziXQAdAgMBAAGjgb0wgbowCQYDVR0TBAIwADAsBglghkgBhvhC
AQ0EHxYdT3BlblNTTCBHZW5lcmF0ZWQgQ2VydGlmaWNhdGUwHQYDVR0OBBYEFJOA
w4H7/7FLS23ZqKIY9HKH8mwEMGAGA1UdIwRZMFeAFAkvrH4zv04Ah+tfPwGorIHu
PhkmoTSkMjAwMQswCQYDVQQGEwJJTjESMBAGA1UECBMJS2FybmF0YWthMQ0wCwYD
VQQKEwRTYWhpggkA1ox4XN/1nqMwDQYJKoZIhvcNAQEFBQADgYEAxl53wOQbAmau
YaWcH2xwjK4GflLLE2j+YPTudUK1T/CzAH8assgtLEvslqhOe0GqYbknizJoBDoi
59dIfZFIvmyGkvfkvT0nnepAA4MsseHmQh4bxTbs/BHVoj7zYGagzZ3G40VD/lVw
+jyVUpKWsN0UDot8rYC9ZK0udNj6StA=
-----END CERTIFICATE-----
