Certificate:
    Data:
        Version: 3 (0x2)
        Serial Number: 13 (0xd)
        Signature Algorithm: sha1WithRSAEncryption
        Issuer: C=IN, ST=Karnataka, O=Sahi
        Validity
            Not Before: Apr  8 02:16:56 2015 GMT
            Not After : Apr  5 02:16:56 2025 GMT
        Subject: C=IN, ST=Karnataka, O=Sahi, OU=Sahi, CN=t.urs.microsoft.com
        Subject Public Key Info:
            Public Key Algorithm: rsaEncryption
            RSA Public Key: (2048 bit)
                Modulus (2048 bit):
                    00:ac:0d:dc:04:1f:14:6b:7d:17:1d:68:ae:5e:ee:
                    8b:4b:f1:7a:72:1c:e5:48:f7:e8:55:4a:48:36:ff:
                    46:ee:37:fc:1c:84:17:03:1f:42:5e:b6:72:2c:40:
                    00:17:c4:dd:3a:23:c5:03:38:80:89:59:67:e9:d6:
                    c4:ef:69:f5:4f:43:7e:1c:70:b0:e2:77:2a:94:45:
                    3a:8a:56:65:d5:2b:8c:da:05:7b:b7:88:a0:6f:b5:
                    55:ab:06:d9:32:45:39:3d:c5:58:c3:62:1a:6a:2b:
                    38:27:56:4c:8c:96:83:0f:f4:42:4f:10:08:f0:c6:
                    a2:1e:3a:bc:64:1a:6d:3c:55:ed:aa:58:68:02:8c:
                    8c:46:89:0d:0b:f5:5b:55:c9:04:c9:43:62:e1:2c:
                    cf:e6:6c:fc:7a:46:69:7b:a4:b6:22:a3:14:68:59:
                    40:a7:24:70:39:36:44:d6:3a:37:dc:d0:96:b1:03:
                    92:51:e3:e5:a0:b4:59:b5:f5:cd:8b:49:0d:6f:65:
                    8c:e9:fc:6f:3f:60:6a:7b:82:da:28:37:f4:32:bb:
                    bb:51:98:5e:81:7f:e1:d5:34:c4:c1:97:20:fb:b5:
                    48:bf:dc:8b:45:ba:b8:4e:1d:80:89:70:55:9b:d3:
                    a5:9f:2b:bf:39:51:f9:67:cd:4d:4c:8c:65:9c:43:
                    43:8f
                Exponent: 65537 (0x10001)
        X509v3 extensions:
            X509v3 Basic Constraints: 
                CA:FALSE
            Netscape Comment: 
                OpenSSL Generated Certificate
            X509v3 Subject Key Identifier: 
                FB:78:AE:1E:11:14:A3:D5:27:EE:0C:54:19:FA:0F:A4:95:AE:94:1E
            X509v3 Authority Key Identifier: 
                keyid:09:2F:AC:7E:33:BF:4E:00:87:EB:5F:3F:01:A8:AC:81:EE:3E:19:26
                DirName:/C=IN/ST=Karnataka/O=Sahi
                serial:D6:8C:78:5C:DF:F5:9E:A3

    Signature Algorithm: sha1WithRSAEncryption
        56:b6:ae:90:54:59:a8:e6:cb:64:4c:24:e3:84:61:fb:ac:21:
        d8:4c:35:28:d9:15:80:34:ed:4f:d7:cf:4d:50:59:6d:40:c3:
        04:8c:7c:9b:52:9c:40:81:66:de:b4:b3:a9:74:00:35:ff:fc:
        de:7f:03:71:47:60:7c:98:f3:d7:a2:94:ba:46:54:f6:44:ad:
        34:01:34:dc:c7:27:fc:db:df:ea:d2:70:85:6b:52:f7:dc:96:
        e6:bd:fb:ce:61:8e:b3:52:4d:21:25:ae:7b:2a:ca:ec:5b:85:
        1f:de:14:97:41:27:fc:0e:cc:27:e2:15:17:ae:c0:4a:23:9a:
        a9:aa
-----BEGIN CERTIFICATE-----
MIIDRTCCAq6gAwIBAgIBDTANBgkqhkiG9w0BAQUFADAwMQswCQYDVQQGEwJJTjES
MBAGA1UECBMJS2FybmF0YWthMQ0wCwYDVQQKEwRTYWhpMB4XDTE1MDQwODAyMTY1
NloXDTI1MDQwNTAyMTY1NlowXTELMAkGA1UEBhMCSU4xEjAQBgNVBAgTCUthcm5h
dGFrYTENMAsGA1UEChMEU2FoaTENMAsGA1UECxMEU2FoaTEcMBoGA1UEAxMTdC51
cnMubWljcm9zb2Z0LmNvbTCCASIwDQYJKoZIhvcNAQEBBQADggEPADCCAQoCggEB
AKwN3AQfFGt9Fx1orl7ui0vxenIc5Uj36FVKSDb/Ru43/ByEFwMfQl62cixAABfE
3TojxQM4gIlZZ+nWxO9p9U9DfhxwsOJ3KpRFOopWZdUrjNoFe7eIoG+1VasG2TJF
OT3FWMNiGmorOCdWTIyWgw/0Qk8QCPDGoh46vGQabTxV7apYaAKMjEaJDQv1W1XJ
BMlDYuEsz+Zs/HpGaXuktiKjFGhZQKckcDk2RNY6N9zQlrEDklHj5aC0WbX1zYtJ
DW9ljOn8bz9ganuC2ig39DK7u1GYXoF/4dU0xMGXIPu1SL/ci0W6uE4dgIlwVZvT
pZ8rvzlR+WfNTUyMZZxDQ48CAwEAAaOBvTCBujAJBgNVHRMEAjAAMCwGCWCGSAGG
+EIBDQQfFh1PcGVuU1NMIEdlbmVyYXRlZCBDZXJ0aWZpY2F0ZTAdBgNVHQ4EFgQU
+3iuHhEUo9Un7gxUGfoPpJWulB4wYAYDVR0jBFkwV4AUCS+sfjO/TgCH618/Aais
ge4+GSahNKQyMDAxCzAJBgNVBAYTAklOMRIwEAYDVQQIEwlLYXJuYXRha2ExDTAL
BgNVBAoTBFNhaGmCCQDWjHhc3/WeozANBgkqhkiG9w0BAQUFAAOBgQBWtq6QVFmo
5stkTCTjhGH7rCHYTDUo2RWANO1P189NUFltQMMEjHybUpxAgWbetLOpdAA1//ze
fwNxR2B8mPPXopS6RlT2RK00ATTcxyf829/q0nCFa1L33JbmvfvOYY6zUk0hJa57
KsrsW4Uf3hSXQSf8Dswn4hUXrsBKI5qpqg==
-----END CERTIFICATE-----
