Certificate:
    Data:
        Version: 3 (0x2)
        Serial Number: 14 (0xe)
        Signature Algorithm: sha1WithRSAEncryption
        Issuer: C=IN, ST=Karnataka, O=Sahi
        Validity
            Not Before: Apr  8 02:22:04 2015 GMT
            Not After : Apr  5 02:22:04 2025 GMT
        Subject: C=IN, ST=Karnataka, O=Sahi, OU=Sahi, CN=clients2.googleusercontent.com
        Subject Public Key Info:
            Public Key Algorithm: rsaEncryption
            RSA Public Key: (2048 bit)
                Modulus (2048 bit):
                    00:bb:b3:21:98:c8:b2:49:9c:3e:c2:99:42:b7:45:
                    7e:45:50:bb:7f:f7:28:76:53:50:17:a7:5f:91:b8:
                    15:62:ee:ce:03:da:ff:25:5c:0e:51:31:3a:9d:6a:
                    f8:81:af:22:63:9f:78:45:08:4d:a1:ea:c5:a2:e1:
                    7f:df:65:d8:de:99:37:18:cb:8e:2d:bb:05:1d:f3:
                    fa:70:31:cc:e5:4e:a0:2d:0b:b1:0c:5f:bc:86:04:
                    9f:5a:5f:31:e3:d2:71:94:5f:dd:14:05:fe:b1:52:
                    13:10:4d:a9:39:7f:be:22:6c:03:ea:e5:19:51:49:
                    36:79:73:0d:4b:a8:a7:4b:ae:a4:2b:c3:de:e6:fd:
                    78:76:8a:e7:18:8e:08:f1:19:26:e5:e8:76:de:54:
                    71:37:24:13:17:24:0a:bb:a6:ba:47:a0:27:fd:a1:
                    3a:62:70:81:3a:43:c8:e3:0c:f1:d5:3d:48:4e:4a:
                    18:2e:ec:60:87:3e:fd:ec:87:5d:49:c5:6f:34:78:
                    10:a7:3c:40:65:e4:3e:1e:2b:e3:bf:88:3c:37:d5:
                    42:bd:89:23:28:99:57:96:8c:96:16:e9:46:e5:7f:
                    f0:a0:b6:52:cc:73:20:a0:4e:78:f4:cc:8f:13:4e:
                    be:01:c7:89:3a:bd:6c:42:a9:f7:00:71:51:d0:d0:
                    47:67
                Exponent: 65537 (0x10001)
        X509v3 extensions:
            X509v3 Basic Constraints: 
                CA:FALSE
            Netscape Comment: 
                OpenSSL Generated Certificate
            X509v3 Subject Key Identifier: 
                36:AD:FE:2C:3E:95:11:86:D7:7B:A4:EB:39:C7:AE:DA:38:A8:C2:D6
            X509v3 Authority Key Identifier: 
                keyid:09:2F:AC:7E:33:BF:4E:00:87:EB:5F:3F:01:A8:AC:81:EE:3E:19:26
                DirName:/C=IN/ST=Karnataka/O=Sahi
                serial:D6:8C:78:5C:DF:F5:9E:A3

    Signature Algorithm: sha1WithRSAEncryption
        33:97:cb:e7:0f:e0:a8:71:08:e5:76:f7:a9:28:04:5c:6e:f9:
        16:1f:e6:1d:23:aa:8b:8e:e6:7d:bc:3a:75:75:47:cb:32:2b:
        1e:b4:b6:a2:e5:2f:0b:90:c6:17:fe:55:45:b4:cd:69:3b:1a:
        4e:18:00:cf:a5:d9:d1:8a:4e:69:16:5d:b9:d9:43:03:09:c6:
        d8:00:30:62:42:8c:2d:85:f0:80:ed:1c:21:82:b7:fc:5f:ed:
        13:0f:7c:d2:e0:aa:3b:4a:11:16:73:84:57:af:90:c5:d5:af:
        6f:3f:86:06:ce:01:c0:29:31:9a:42:1c:9a:7d:dd:c0:bd:c9:
        46:24
-----BEGIN CERTIFICATE-----
MIIDUDCCArmgAwIBAgIBDjANBgkqhkiG9w0BAQUFADAwMQswCQYDVQQGEwJJTjES
MBAGA1UECBMJS2FybmF0YWthMQ0wCwYDVQQKEwRTYWhpMB4XDTE1MDQwODAyMjIw
NFoXDTI1MDQwNTAyMjIwNFowaDELMAkGA1UEBhMCSU4xEjAQBgNVBAgTCUthcm5h
dGFrYTENMAsGA1UEChMEU2FoaTENMAsGA1UECxMEU2FoaTEnMCUGA1UEAxMeY2xp
ZW50czIuZ29vZ2xldXNlcmNvbnRlbnQuY29tMIIBIjANBgkqhkiG9w0BAQEFAAOC
AQ8AMIIBCgKCAQEAu7MhmMiySZw+wplCt0V+RVC7f/codlNQF6dfkbgVYu7OA9r/
JVwOUTE6nWr4ga8iY594RQhNoerFouF/32XY3pk3GMuOLbsFHfP6cDHM5U6gLQux
DF+8hgSfWl8x49JxlF/dFAX+sVITEE2pOX++ImwD6uUZUUk2eXMNS6inS66kK8Pe
5v14dornGI4I8Rkm5eh23lRxNyQTFyQKu6a6R6An/aE6YnCBOkPI4wzx1T1ITkoY
Luxghz797IddScVvNHgQpzxAZeQ+Hivjv4g8N9VCvYkjKJlXloyWFulG5X/woLZS
zHMgoE549MyPE06+AceJOr1sQqn3AHFR0NBHZwIDAQABo4G9MIG6MAkGA1UdEwQC
MAAwLAYJYIZIAYb4QgENBB8WHU9wZW5TU0wgR2VuZXJhdGVkIENlcnRpZmljYXRl
MB0GA1UdDgQWBBQ2rf4sPpURhtd7pOs5x67aOKjC1jBgBgNVHSMEWTBXgBQJL6x+
M79OAIfrXz8BqKyB7j4ZJqE0pDIwMDELMAkGA1UEBhMCSU4xEjAQBgNVBAgTCUth
cm5hdGFrYTENMAsGA1UEChMEU2FoaYIJANaMeFzf9Z6jMA0GCSqGSIb3DQEBBQUA
A4GBADOXy+cP4KhxCOV296koBFxu+RYf5h0jqouO5n28OnV1R8syKx60tqLlLwuQ
xhf+VUW0zWk7Gk4YAM+l2dGKTmkWXbnZQwMJxtgAMGJCjC2F8IDtHCGCt/xf7RMP
fNLgqjtKERZzhFevkMXVr28/hgbOAcApMZpCHJp93cC9yUYk
-----END CERTIFICATE-----
