Certificate:
    Data:
        Version: 3 (0x2)
        Serial Number: 15 (0xf)
        Signature Algorithm: sha1WithRSAEncryption
        Issuer: C=IN, ST=Karnataka, O=Sahi
        Validity
            Not Before: Apr  8 02:22:09 2015 GMT
            Not After : Apr  5 02:22:09 2025 GMT
        Subject: C=IN, ST=Karnataka, O=Sahi, OU=Sahi, CN=chrome.google.com
        Subject Public Key Info:
            Public Key Algorithm: rsaEncryption
            RSA Public Key: (2048 bit)
                Modulus (2048 bit):
                    00:98:99:11:1c:56:2f:2d:7d:84:d5:93:3b:59:c7:
                    c5:34:c0:c4:d1:ba:f7:39:23:4c:d5:4d:a7:5e:0c:
                    1e:11:32:5c:c6:81:d5:e1:08:32:a3:7c:f8:1a:ea:
                    27:c7:1f:94:fe:ba:19:5c:e6:16:df:c6:84:11:ef:
                    99:c2:f4:41:c8:3e:e9:ff:38:0e:8e:06:33:33:35:
                    97:06:e7:19:79:00:c4:9f:b3:12:f6:c9:8b:f8:ef:
                    51:93:cb:2d:f5:43:e4:2f:d6:9a:58:ee:2f:2b:2e:
                    84:ff:c3:60:92:c3:e8:3c:23:b6:f6:9f:9a:9b:0d:
                    b8:b6:63:e9:9a:aa:c5:18:bf:65:88:74:3a:f2:56:
                    da:79:7d:90:28:4c:7b:fc:03:29:18:a8:63:1c:e7:
                    a0:43:46:4b:09:be:b9:d5:6d:48:a0:49:f9:da:59:
                    3b:69:33:32:df:61:17:62:a5:44:8a:8b:a6:e2:d0:
                    98:08:31:62:02:bb:fb:f9:4a:76:b5:26:39:34:f9:
                    49:65:e8:cc:ec:45:81:9f:e2:39:22:3a:02:29:7d:
                    92:44:d7:c1:61:7e:63:ed:36:b7:9f:40:8e:fa:9a:
                    0b:54:74:79:cf:9a:47:21:6c:fb:7c:01:f7:7f:a0:
                    96:0f:00:5f:25:18:2c:b2:3e:23:7e:8b:93:ca:4b:
                    a4:ed
                Exponent: 65537 (0x10001)
        X509v3 extensions:
            X509v3 Basic Constraints: 
                CA:FALSE
            Netscape Comment: 
                OpenSSL Generated Certificate
            X509v3 Subject Key Identifier: 
                DE:68:59:2B:89:DB:83:B0:9E:7A:A8:5D:72:0B:FA:07:43:BC:26:14
            X509v3 Authority Key Identifier: 
                keyid:09:2F:AC:7E:33:BF:4E:00:87:EB:5F:3F:01:A8:AC:81:EE:3E:19:26
                DirName:/C=IN/ST=Karnataka/O=Sahi
                serial:D6:8C:78:5C:DF:F5:9E:A3

    Signature Algorithm: sha1WithRSAEncryption
        a4:ba:7f:3c:54:8b:ae:55:53:a0:91:1a:f7:f2:bb:fa:1b:4d:
        41:bf:de:2e:73:12:09:54:51:d0:58:e8:40:78:95:0f:fe:3c:
        a0:9f:fe:93:fb:ef:81:3b:4b:0b:e0:cd:7d:60:d6:cb:95:d1:
        40:41:bd:c9:e6:f5:e6:dc:7c:ee:2a:f7:fe:c7:53:9f:7f:eb:
        b1:6a:a6:1b:5f:88:44:3a:66:b4:82:11:5b:31:f6:00:ee:31:
        d5:b3:f7:71:72:d1:3b:26:23:e5:f4:74:a4:99:3a:11:3b:23:
        c9:70:a1:93:75:cb:25:50:38:77:01:db:c1:91:c8:1a:af:16:
        8f:be
-----BEGIN CERTIFICATE-----
MIIDQzCCAqygAwIBAgIBDzANBgkqhkiG9w0BAQUFADAwMQswCQYDVQQGEwJJTjES
MBAGA1UECBMJS2FybmF0YWthMQ0wCwYDVQQKEwRTYWhpMB4XDTE1MDQwODAyMjIw
OVoXDTI1MDQwNTAyMjIwOVowWzELMAkGA1UEBhMCSU4xEjAQBgNVBAgTCUthcm5h
dGFrYTENMAsGA1UEChMEU2FoaTENMAsGA1UECxMEU2FoaTEaMBgGA1UEAxMRY2hy
b21lLmdvb2dsZS5jb20wggEiMA0GCSqGSIb3DQEBAQUAA4IBDwAwggEKAoIBAQCY
mREcVi8tfYTVkztZx8U0wMTRuvc5I0zVTadeDB4RMlzGgdXhCDKjfPga6ifHH5T+
uhlc5hbfxoQR75nC9EHIPun/OA6OBjMzNZcG5xl5AMSfsxL2yYv471GTyy31Q+Qv
1ppY7i8rLoT/w2CSw+g8I7b2n5qbDbi2Y+maqsUYv2WIdDryVtp5fZAoTHv8AykY
qGMc56BDRksJvrnVbUigSfnaWTtpMzLfYRdipUSKi6bi0JgIMWICu/v5Sna1Jjk0
+Ull6MzsRYGf4jkiOgIpfZJE18FhfmPtNrefQI76mgtUdHnPmkchbPt8Afd/oJYP
AF8lGCyyPiN+i5PKS6TtAgMBAAGjgb0wgbowCQYDVR0TBAIwADAsBglghkgBhvhC
AQ0EHxYdT3BlblNTTCBHZW5lcmF0ZWQgQ2VydGlmaWNhdGUwHQYDVR0OBBYEFN5o
WSuJ24OwnnqoXXIL+gdDvCYUMGAGA1UdIwRZMFeAFAkvrH4zv04Ah+tfPwGorIHu
PhkmoTSkMjAwMQswCQYDVQQGEwJJTjESMBAGA1UECBMJS2FybmF0YWthMQ0wCwYD
VQQKEwRTYWhpggkA1ox4XN/1nqMwDQYJKoZIhvcNAQEFBQADgYEApLp/PFSLrlVT
oJEa9/K7+htNQb/eLnMSCVRR0FjoQHiVD/48oJ/+k/vvgTtLC+DNfWDWy5XRQEG9
yeb15tx87ir3/sdTn3/rsWqmG1+IRDpmtIIRWzH2AO4x1bP3cXLROyYj5fR0pJk6
ETsjyXChk3XLJVA4dwHbwZHIGq8Wj74=
-----END CERTIFICATE-----
