Certificate:
    Data:
        Version: 3 (0x2)
        Serial Number: 16 (0x10)
        Signature Algorithm: sha1WithRSAEncryption
        Issuer: C=IN, ST=Karnataka, O=Sahi
        Validity
            Not Before: Apr  9 02:32:26 2015 GMT
            Not After : Apr  6 02:32:26 2025 GMT
        Subject: C=IN, ST=Karnataka, O=Sahi, OU=Sahi, CN=fhr.data.mozilla.com
        Subject Public Key Info:
            Public Key Algorithm: rsaEncryption
            RSA Public Key: (2048 bit)
                Modulus (2048 bit):
                    00:b3:5a:10:5b:e0:68:04:2b:86:5a:d0:72:46:5a:
                    b0:5e:1e:8f:6f:8c:a0:dc:f8:60:a4:af:e0:15:5d:
                    4b:6d:4b:db:24:7f:cf:8c:49:90:fc:8b:28:c9:d5:
                    65:72:9c:74:fb:70:bc:e3:92:68:32:07:65:01:5f:
                    01:c2:c9:06:df:c9:34:6e:93:56:08:e5:53:60:4d:
                    3f:63:1f:b8:08:9f:c6:85:79:d6:c8:b7:08:72:39:
                    17:7e:9e:59:e4:53:8e:ef:d1:42:b5:56:b5:d5:b4:
                    53:6b:1c:2e:25:6d:8b:df:73:89:23:4c:84:94:b2:
                    34:bb:65:df:4f:b0:80:63:f4:d1:36:be:d5:90:a5:
                    d7:34:86:95:a8:5b:6b:08:dd:7c:c3:c4:d2:0c:bf:
                    f6:8b:72:9b:6e:2a:72:77:99:f6:37:c1:b3:63:c1:
                    a2:f4:59:cd:07:9f:dc:32:7b:31:72:cf:89:33:02:
                    84:3a:e7:f5:0d:e1:63:9e:1a:ab:f7:29:ae:2e:94:
                    e2:4e:48:33:70:8b:ea:cb:49:68:ce:92:47:de:d0:
                    fe:1a:83:c5:b7:28:7c:71:59:0b:46:21:72:96:22:
                    f2:02:ed:2d:74:70:c9:5d:32:6d:5d:cd:0e:7e:68:
                    a7:aa:f4:a9:f3:84:e2:5c:43:11:92:c6:55:d7:10:
                    d0:fd
                Exponent: 65537 (0x10001)
        X509v3 extensions:
            X509v3 Basic Constraints: 
                CA:FALSE
            Netscape Comment: 
                OpenSSL Generated Certificate
            X509v3 Subject Key Identifier: 
                60:8B:5C:F0:AF:52:AD:AF:9A:1C:49:2F:63:5B:68:3B:00:DF:78:67
            X509v3 Authority Key Identifier: 
                keyid:09:2F:AC:7E:33:BF:4E:00:87:EB:5F:3F:01:A8:AC:81:EE:3E:19:26
                DirName:/C=IN/ST=Karnataka/O=Sahi
                serial:D6:8C:78:5C:DF:F5:9E:A3

    Signature Algorithm: sha1WithRSAEncryption
        01:d9:64:9d:71:c0:6b:23:1a:30:8e:dc:d8:b6:44:5b:66:b6:
        81:dc:86:8b:f4:c0:cd:0d:a2:c1:42:1c:71:c1:fc:25:6e:e6:
        20:3b:1f:ef:04:33:fa:fa:95:59:41:42:1b:0e:90:db:45:ef:
        d8:f5:de:e1:0c:98:a1:fe:34:db:c4:24:0e:8f:73:4c:91:21:
        13:23:72:25:57:fa:a9:64:13:8b:f0:59:08:87:77:0f:2d:46:
        f1:78:9a:28:c6:da:93:27:47:e1:41:5a:34:d8:0f:9a:e6:4c:
        72:e7:14:c3:76:f5:d9:5b:32:83:f2:17:1f:b6:97:bd:58:35:
        d8:b2
-----BEGIN CERTIFICATE-----
MIIDRjCCAq+gAwIBAgIBEDANBgkqhkiG9w0BAQUFADAwMQswCQYDVQQGEwJJTjES
MBAGA1UECBMJS2FybmF0YWthMQ0wCwYDVQQKEwRTYWhpMB4XDTE1MDQwOTAyMzIy
NloXDTI1MDQwNjAyMzIyNlowXjELMAkGA1UEBhMCSU4xEjAQBgNVBAgTCUthcm5h
dGFrYTENMAsGA1UEChMEU2FoaTENMAsGA1UECxMEU2FoaTEdMBsGA1UEAxMUZmhy
LmRhdGEubW96aWxsYS5jb20wggEiMA0GCSqGSIb3DQEBAQUAA4IBDwAwggEKAoIB
AQCzWhBb4GgEK4Za0HJGWrBeHo9vjKDc+GCkr+AVXUttS9skf8+MSZD8iyjJ1WVy
nHT7cLzjkmgyB2UBXwHCyQbfyTRuk1YI5VNgTT9jH7gIn8aFedbItwhyORd+nlnk
U47v0UK1VrXVtFNrHC4lbYvfc4kjTISUsjS7Zd9PsIBj9NE2vtWQpdc0hpWoW2sI
3XzDxNIMv/aLcptuKnJ3mfY3wbNjwaL0Wc0Hn9wyezFyz4kzAoQ65/UN4WOeGqv3
Ka4ulOJOSDNwi+rLSWjOkkfe0P4ag8W3KHxxWQtGIXKWIvIC7S10cMldMm1dzQ5+
aKeq9KnzhOJcQxGSxlXXEND9AgMBAAGjgb0wgbowCQYDVR0TBAIwADAsBglghkgB
hvhCAQ0EHxYdT3BlblNTTCBHZW5lcmF0ZWQgQ2VydGlmaWNhdGUwHQYDVR0OBBYE
FGCLXPCvUq2vmhxJL2NbaDsA33hnMGAGA1UdIwRZMFeAFAkvrH4zv04Ah+tfPwGo
rIHuPhkmoTSkMjAwMQswCQYDVQQGEwJJTjESMBAGA1UECBMJS2FybmF0YWthMQ0w
CwYDVQQKEwRTYWhpggkA1ox4XN/1nqMwDQYJKoZIhvcNAQEFBQADgYEAAdlknXHA
ayMaMI7c2LZEW2a2gdyGi/TAzQ2iwUIcccH8JW7mIDsf7wQz+vqVWUFCGw6Q20Xv
2PXe4QyYof4028QkDo9zTJEhEyNyJVf6qWQTi/BZCId3Dy1G8XiaKMbakydH4UFa
NNgPmuZMcucUw3b12Vsyg/IXH7aXvVg12LI=
-----END CERTIFICATE-----
