Certificate:
    Data:
        Version: 3 (0x2)
        Serial Number: 17 (0x11)
        Signature Algorithm: sha1WithRSAEncryption
        Issuer: C=IN, ST=Karnataka, O=Sahi
        Validity
            Not Before: Apr  9 06:49:21 2015 GMT
            Not After : Apr  6 06:49:21 2025 GMT
        Subject: C=IN, ST=Karnataka, O=Sahi, OU=Sahi, CN=p5-k7dil5ndpd7c6-nwfqvp65rcrru2ql-768742-i2-v6exp3-v4.metric.gstatic.com
        Subject Public Key Info:
            Public Key Algorithm: rsaEncryption
            RSA Public Key: (2048 bit)
                Modulus (2048 bit):
                    00:97:28:2c:bc:40:f4:8a:15:de:1a:e8:a8:d6:56:
                    fe:dd:e7:23:51:87:c5:2f:24:a8:7f:99:1f:0a:85:
                    31:99:d9:e5:32:22:10:00:f1:24:27:52:c9:27:b6:
                    08:55:e9:64:e7:a5:b6:6a:d6:d0:8e:8a:b9:6c:90:
                    94:f9:9d:95:85:69:51:f7:ee:b6:d0:b1:a5:d9:ed:
                    71:4e:01:7d:81:b9:f6:e0:a1:31:c4:2d:e0:fc:b2:
                    46:6e:1a:da:38:35:a8:88:20:b9:6d:bb:0c:3a:c7:
                    62:02:d7:fa:ac:d2:f9:f9:a1:4c:03:46:ee:6c:32:
                    f2:fb:6e:ca:dd:0b:6f:78:68:a6:8c:82:6e:0c:b6:
                    1b:79:40:b0:4d:c2:9c:a7:76:59:b9:19:02:66:4a:
                    21:b0:ba:d4:88:ee:78:a0:30:f0:3e:2a:74:d9:2e:
                    64:f5:09:04:b9:50:41:93:c3:64:8d:aa:0c:82:25:
                    33:91:0f:ab:3a:3f:0b:31:78:05:60:7f:cb:cf:b7:
                    09:e4:91:ed:81:55:4e:46:46:95:4d:b9:68:db:15:
                    91:27:2e:85:4e:24:f0:26:bc:2d:1e:98:2d:8f:69:
                    bf:4c:ec:7e:4d:a7:ab:91:5f:80:86:b6:e9:59:af:
                    54:aa:fb:c3:19:8a:d5:d1:8d:33:83:fa:d0:8c:e8:
                    32:3d
                Exponent: 65537 (0x10001)
        X509v3 extensions:
            X509v3 Basic Constraints: 
                CA:FALSE
            Netscape Comment: 
                OpenSSL Generated Certificate
            X509v3 Subject Key Identifier: 
                58:6B:44:11:E6:C1:EB:A2:30:9F:07:16:19:9D:DC:EC:B8:61:AE:3F
            X509v3 Authority Key Identifier: 
                keyid:09:2F:AC:7E:33:BF:4E:00:87:EB:5F:3F:01:A8:AC:81:EE:3E:19:26
                DirName:/C=IN/ST=Karnataka/O=Sahi
                serial:D6:8C:78:5C:DF:F5:9E:A3

    Signature Algorithm: sha1WithRSAEncryption
        0e:d1:f3:25:95:75:1c:c5:ad:8e:e9:f6:8b:69:13:a3:9c:8c:
        39:58:20:73:eb:52:0d:44:3b:9d:82:a1:64:c4:ee:27:cc:b0:
        18:06:c4:2c:c6:af:f4:32:79:7f:ff:ec:d4:1b:7f:da:ee:b0:
        2f:5c:44:5e:29:21:a8:e5:6d:1a:b8:16:e6:66:10:36:9d:7e:
        ee:86:3c:07:94:4c:39:d7:ee:c7:4e:89:14:bf:c9:69:5d:39:
        90:72:55:0c:dc:f1:1f:12:56:05:ca:90:af:19:7c:4c:14:41:
        8c:b8:4b:e7:42:4c:ec:6f:c6:52:df:19:a7:1c:8c:7c:90:d7:
        d6:c9
-----BEGIN CERTIFICATE-----
MIIDezCCAuSgAwIBAgIBETANBgkqhkiG9w0BAQUFADAwMQswCQYDVQQGEwJJTjES
MBAGA1UECBMJS2FybmF0YWthMQ0wCwYDVQQKEwRTYWhpMB4XDTE1MDQwOTA2NDky
MVoXDTI1MDQwNjA2NDkyMVowgZIxCzAJBgNVBAYTAklOMRIwEAYDVQQIEwlLYXJu
YXRha2ExDTALBgNVBAoTBFNhaGkxDTALBgNVBAsTBFNhaGkxUTBPBgNVBAMTSHA1
LWs3ZGlsNW5kcGQ3YzYtbndmcXZwNjVyY3JydTJxbC03Njg3NDItaTItdjZleHAz
LXY0Lm1ldHJpYy5nc3RhdGljLmNvbTCCASIwDQYJKoZIhvcNAQEBBQADggEPADCC
AQoCggEBAJcoLLxA9IoV3hroqNZW/t3nI1GHxS8kqH+ZHwqFMZnZ5TIiEADxJCdS
ySe2CFXpZOeltmrW0I6KuWyQlPmdlYVpUffuttCxpdntcU4BfYG59uChMcQt4Pyy
Rm4a2jg1qIgguW27DDrHYgLX+qzS+fmhTANG7mwy8vtuyt0Lb3hopoyCbgy2G3lA
sE3CnKd2WbkZAmZKIbC61IjueKAw8D4qdNkuZPUJBLlQQZPDZI2qDIIlM5EPqzo/
CzF4BWB/y8+3CeSR7YFVTkZGlU25aNsVkScuhU4k8Ca8LR6YLY9pv0zsfk2nq5Ff
gIa26VmvVKr7wxmK1dGNM4P60IzoMj0CAwEAAaOBvTCBujAJBgNVHRMEAjAAMCwG
CWCGSAGG+EIBDQQfFh1PcGVuU1NMIEdlbmVyYXRlZCBDZXJ0aWZpY2F0ZTAdBgNV
HQ4EFgQUWGtEEebB66IwnwcWGZ3c7Lhhrj8wYAYDVR0jBFkwV4AUCS+sfjO/TgCH
618/Aaisge4+GSahNKQyMDAxCzAJBgNVBAYTAklOMRIwEAYDVQQIEwlLYXJuYXRh
a2ExDTALBgNVBAoTBFNhaGmCCQDWjHhc3/WeozANBgkqhkiG9w0BAQUFAAOBgQAO
0fMllXUcxa2O6faLaROjnIw5WCBz61INRDudgqFkxO4nzLAYBsQsxq/0Mnl//+zU
G3/a7rAvXEReKSGo5W0auBbmZhA2nX7uhjwHlEw51+7HTokUv8lpXTmQclUM3PEf
ElYFypCvGXxMFEGMuEvnQkzsb8ZS3xmnHIx8kNfWyQ==
-----END CERTIFICATE-----
