Certificate:
    Data:
        Version: 3 (0x2)
        Serial Number: 18 (0x12)
        Signature Algorithm: sha1WithRSAEncryption
        Issuer: C=IN, ST=Karnataka, O=Sahi
        Validity
            Not Before: Apr  9 06:49:27 2015 GMT
            Not After : Apr  6 06:49:27 2025 GMT
        Subject: C=IN, ST=Karnataka, O=Sahi, OU=Sahi, CN=p5-k7dil5ndpd7c6-nwfqvp65rcrru2ql-768742-i1-v6exp3-ds.metric.gstatic.com
        Subject Public Key Info:
            Public Key Algorithm: rsaEncryption
            RSA Public Key: (2048 bit)
                Modulus (2048 bit):
                    00:83:2b:6e:c8:a8:e1:6f:46:10:27:5c:ab:67:6e:
                    24:af:02:9a:87:f6:fa:87:6e:04:aa:9c:ba:b4:0e:
                    a1:f0:21:70:b5:40:9a:49:17:5b:1a:94:98:ed:8c:
                    6d:a6:b7:4b:10:bb:65:ff:af:6a:fc:56:d2:9b:bf:
                    cf:cc:74:39:1c:d6:ba:44:29:b6:79:3a:ea:16:68:
                    4e:ae:eb:a8:f8:b1:3f:87:e2:41:22:f7:80:33:86:
                    bf:5d:05:fe:26:2c:c9:18:b4:c7:18:a3:59:4d:b6:
                    eb:3e:69:cb:10:89:30:f9:2f:c0:c2:cb:60:6d:e6:
                    08:70:ff:e0:22:ff:8b:f6:eb:59:33:36:44:78:1a:
                    3e:0b:ac:85:8d:3a:23:6d:38:ed:da:90:84:a7:da:
                    4d:ec:5b:7c:63:e1:9c:cb:f6:b3:36:eb:d7:55:1d:
                    a9:0f:ba:6d:d1:3f:20:dc:c7:5f:49:3a:b5:47:e0:
                    f7:78:de:e4:d6:f8:01:82:88:23:21:05:64:0c:e3:
                    bc:09:c6:46:35:3e:e3:13:d9:96:e1:1b:d1:b4:68:
                    32:db:42:54:7a:66:81:54:46:10:bc:96:9f:b9:f4:
                    ab:f6:1a:5b:e7:16:4c:2d:43:48:85:4f:1c:e8:9d:
                    8c:ba:df:84:f1:37:e5:fd:bc:e6:fa:77:50:49:0f:
                    20:5f
                Exponent: 65537 (0x10001)
        X509v3 extensions:
            X509v3 Basic Constraints: 
                CA:FALSE
            Netscape Comment: 
                OpenSSL Generated Certificate
            X509v3 Subject Key Identifier: 
                63:F1:AE:2E:37:61:1B:D5:E3:5F:20:A6:73:07:C0:07:C6:D3:10:6D
            X509v3 Authority Key Identifier: 
                keyid:09:2F:AC:7E:33:BF:4E:00:87:EB:5F:3F:01:A8:AC:81:EE:3E:19:26
                DirName:/C=IN/ST=Karnataka/O=Sahi
                serial:D6:8C:78:5C:DF:F5:9E:A3

    Signature Algorithm: sha1WithRSAEncryption
        83:d4:74:a7:68:6f:aa:a8:e8:c3:3c:89:20:42:01:cf:ed:d4:
        e0:70:7e:2d:00:5e:2a:49:02:fe:af:55:e7:1f:61:40:a0:28:
        90:d4:4d:77:7f:69:a2:20:1a:38:1c:7b:ad:ca:6d:5c:a0:2e:
        fa:b6:c3:92:bb:46:1d:2d:ca:75:74:23:90:70:8e:c1:19:d4:
        6b:77:7b:d8:fc:98:4b:df:a2:5c:59:29:b1:f4:0e:07:31:c5:
        dd:16:e4:9a:e5:0a:1e:1e:07:4d:c7:5b:86:0a:d0:83:be:10:
        ab:02:62:39:a9:3f:15:21:b3:d7:3c:e9:28:5c:7a:53:17:d7:
        7f:bb
-----BEGIN CERTIFICATE-----
MIIDezCCAuSgAwIBAgIBEjANBgkqhkiG9w0BAQUFADAwMQswCQYDVQQGEwJJTjES
MBAGA1UECBMJS2FybmF0YWthMQ0wCwYDVQQKEwRTYWhpMB4XDTE1MDQwOTA2NDky
N1oXDTI1MDQwNjA2NDkyN1owgZIxCzAJBgNVBAYTAklOMRIwEAYDVQQIEwlLYXJu
YXRha2ExDTALBgNVBAoTBFNhaGkxDTALBgNVBAsTBFNhaGkxUTBPBgNVBAMTSHA1
LWs3ZGlsNW5kcGQ3YzYtbndmcXZwNjVyY3JydTJxbC03Njg3NDItaTEtdjZleHAz
LWRzLm1ldHJpYy5nc3RhdGljLmNvbTCCASIwDQYJKoZIhvcNAQEBBQADggEPADCC
AQoCggEBAIMrbsio4W9GECdcq2duJK8Cmof2+oduBKqcurQOofAhcLVAmkkXWxqU
mO2Mbaa3SxC7Zf+vavxW0pu/z8x0ORzWukQptnk66hZoTq7rqPixP4fiQSL3gDOG
v10F/iYsyRi0xxijWU226z5pyxCJMPkvwMLLYG3mCHD/4CL/i/brWTM2RHgaPgus
hY06I2047dqQhKfaTexbfGPhnMv2szbr11UdqQ+6bdE/INzHX0k6tUfg93je5Nb4
AYKIIyEFZAzjvAnGRjU+4xPZluEb0bRoMttCVHpmgVRGELyWn7n0q/YaW+cWTC1D
SIVPHOidjLrfhPE35f285vp3UEkPIF8CAwEAAaOBvTCBujAJBgNVHRMEAjAAMCwG
CWCGSAGG+EIBDQQfFh1PcGVuU1NMIEdlbmVyYXRlZCBDZXJ0aWZpY2F0ZTAdBgNV
HQ4EFgQUY/GuLjdhG9XjXyCmcwfAB8bTEG0wYAYDVR0jBFkwV4AUCS+sfjO/TgCH
618/Aaisge4+GSahNKQyMDAxCzAJBgNVBAYTAklOMRIwEAYDVQQIEwlLYXJuYXRh
a2ExDTALBgNVBAoTBFNhaGmCCQDWjHhc3/WeozANBgkqhkiG9w0BAQUFAAOBgQCD
1HSnaG+qqOjDPIkgQgHP7dTgcH4tAF4qSQL+r1XnH2FAoCiQ1E13f2miIBo4HHut
ym1coC76tsOSu0YdLcp1dCOQcI7BGdRrd3vY/JhL36JcWSmx9A4HMcXdFuSa5Qoe
HgdNx1uGCtCDvhCrAmI5qT8VIbPXPOkoXHpTF9d/uw==
-----END CERTIFICATE-----
