Certificate:
    Data:
        Version: 3 (0x2)
        Serial Number: 19 (0x13)
        Signature Algorithm: sha1WithRSAEncryption
        Issuer: C=IN, ST=Karnataka, O=Sahi
        Validity
            Not Before: Apr  9 09:17:52 2015 GMT
            Not After : Apr  6 09:17:52 2025 GMT
        Subject: C=IN, ST=Karnataka, O=Sahi, OU=Sahi, CN=translate.google.com
        Subject Public Key Info:
            Public Key Algorithm: rsaEncryption
            RSA Public Key: (2048 bit)
                Modulus (2048 bit):
                    00:e7:4c:c1:34:d4:c9:44:ef:bd:54:12:b5:6a:01:
                    78:dd:c2:0d:27:33:94:6a:0a:37:3a:89:bf:52:32:
                    99:0e:0e:dc:7a:e3:b7:d7:02:de:8d:15:55:f2:83:
                    ae:b3:0d:e6:05:00:30:dd:a6:08:90:8a:57:ec:40:
                    f4:23:14:c1:79:cd:2e:5f:87:5f:42:d7:64:82:f7:
                    03:1a:03:bc:ed:21:7b:60:f5:33:c1:69:83:ad:3a:
                    9a:92:a7:8b:fb:08:9f:d6:cd:08:27:8a:91:dc:d4:
                    ef:a8:50:3f:bc:4b:36:de:66:84:b7:ee:0a:d9:ac:
                    d1:46:e4:ac:5b:e7:6e:f8:44:ca:b8:e9:0f:15:a6:
                    c0:6b:29:92:d5:e5:06:75:a5:37:8c:e3:11:61:89:
                    5b:99:1f:71:f8:2d:95:ed:32:67:97:68:aa:15:ee:
                    e8:cd:c0:70:f9:d8:b5:8f:c4:a1:9e:bb:37:ff:4f:
                    03:1a:b0:1f:fc:66:d3:58:6d:35:91:30:1d:3b:8e:
                    ab:89:44:02:1b:56:8f:41:35:44:3c:63:68:c1:a4:
                    f4:40:16:97:e1:4c:cc:30:d9:85:2d:fb:f0:ef:3a:
                    a5:e8:ef:e6:20:2a:47:ac:00:a5:aa:ea:84:0c:5f:
                    a4:03:e5:6e:51:f8:e9:7c:96:f6:2d:f1:73:b2:1d:
                    ce:43
                Exponent: 65537 (0x10001)
        X509v3 extensions:
            X509v3 Basic Constraints: 
                CA:FALSE
            Netscape Comment: 
                OpenSSL Generated Certificate
            X509v3 Subject Key Identifier: 
                2C:58:A9:5F:BF:F1:CE:49:5C:56:E0:48:5D:D6:02:69:81:6E:A7:50
            X509v3 Authority Key Identifier: 
                keyid:09:2F:AC:7E:33:BF:4E:00:87:EB:5F:3F:01:A8:AC:81:EE:3E:19:26
                DirName:/C=IN/ST=Karnataka/O=Sahi
                serial:D6:8C:78:5C:DF:F5:9E:A3

    Signature Algorithm: sha1WithRSAEncryption
        60:91:41:bc:f4:8f:7e:c6:11:45:3e:09:88:21:e0:78:89:22:
        cb:8c:91:74:f4:51:01:5f:c0:00:29:28:a1:25:2e:33:b0:a3:
        da:77:b8:18:b1:d5:ef:67:76:38:83:29:d7:4a:5d:45:71:95:
        9e:8a:c8:d4:9b:c3:99:9a:01:14:63:02:57:83:b1:08:8b:ed:
        cf:0d:de:0a:e9:a6:40:d1:87:7a:6c:f7:c3:23:d2:2c:b5:7f:
        25:ae:41:2d:65:38:79:ae:17:54:4d:97:70:93:b3:80:f6:27:
        f4:b3:77:bd:2b:c9:6c:2b:6e:db:5c:ec:29:57:4b:2b:c9:d6:
        23:8c
-----BEGIN CERTIFICATE-----
MIIDRjCCAq+gAwIBAgIBEzANBgkqhkiG9w0BAQUFADAwMQswCQYDVQQGEwJJTjES
MBAGA1UECBMJS2FybmF0YWthMQ0wCwYDVQQKEwRTYWhpMB4XDTE1MDQwOTA5MTc1
MloXDTI1MDQwNjA5MTc1MlowXjELMAkGA1UEBhMCSU4xEjAQBgNVBAgTCUthcm5h
dGFrYTENMAsGA1UEChMEU2FoaTENMAsGA1UECxMEU2FoaTEdMBsGA1UEAxMUdHJh
bnNsYXRlLmdvb2dsZS5jb20wggEiMA0GCSqGSIb3DQEBAQUAA4IBDwAwggEKAoIB
AQDnTME01MlE771UErVqAXjdwg0nM5RqCjc6ib9SMpkODtx647fXAt6NFVXyg66z
DeYFADDdpgiQilfsQPQjFMF5zS5fh19C12SC9wMaA7ztIXtg9TPBaYOtOpqSp4v7
CJ/WzQgnipHc1O+oUD+8SzbeZoS37grZrNFG5Kxb5274RMq46Q8VpsBrKZLV5QZ1
pTeM4xFhiVuZH3H4LZXtMmeXaKoV7ujNwHD52LWPxKGeuzf/TwMasB/8ZtNYbTWR
MB07jquJRAIbVo9BNUQ8Y2jBpPRAFpfhTMww2YUt+/DvOqXo7+YgKkesAKWq6oQM
X6QD5W5R+Ol8lvYt8XOyHc5DAgMBAAGjgb0wgbowCQYDVR0TBAIwADAsBglghkgB
hvhCAQ0EHxYdT3BlblNTTCBHZW5lcmF0ZWQgQ2VydGlmaWNhdGUwHQYDVR0OBBYE
FCxYqV+/8c5JXFbgSF3WAmmBbqdQMGAGA1UdIwRZMFeAFAkvrH4zv04Ah+tfPwGo
rIHuPhkmoTSkMjAwMQswCQYDVQQGEwJJTjESMBAGA1UECBMJS2FybmF0YWthMQ0w
CwYDVQQKEwRTYWhpggkA1ox4XN/1nqMwDQYJKoZIhvcNAQEFBQADgYEAYJFBvPSP
fsYRRT4JiCHgeIkiy4yRdPRRAV/AACkooSUuM7Cj2ne4GLHV72d2OIMp10pdRXGV
norI1JvDmZoBFGMCV4OxCIvtzw3eCummQNGHemz3wyPSLLV/Ja5BLWU4ea4XVE2X
cJOzgPYn9LN3vSvJbCtu21zsKVdLK8nWI4w=
-----END CERTIFICATE-----
