Certificate:
    Data:
        Version: 3 (0x2)
        Serial Number: 20 (0x14)
        Signature Algorithm: sha1WithRSAEncryption
        Issuer: C=IN, ST=Karnataka, O=Sahi
        Validity
            Not Before: Apr  9 09:17:55 2015 GMT
            Not After : Apr  6 09:17:55 2025 GMT
        Subject: C=IN, ST=Karnataka, O=Sahi, OU=Sahi, CN=www.google-analytics.com
        Subject Public Key Info:
            Public Key Algorithm: rsaEncryption
            RSA Public Key: (2048 bit)
                Modulus (2048 bit):
                    00:88:22:ef:59:12:88:b6:42:b7:2b:d3:5d:9d:34:
                    66:3d:1f:d1:4e:a8:ec:55:65:75:17:f2:d2:31:21:
                    86:6f:c4:ba:82:e7:16:d5:57:cf:a7:87:66:49:0b:
                    be:3b:ca:e1:1c:62:ce:f0:9d:84:ed:4f:72:00:a3:
                    a3:11:60:bf:18:6a:1d:c6:1e:dd:f0:b8:5f:47:cc:
                    e1:41:51:7e:24:7d:6f:25:49:60:f5:95:53:4b:ea:
                    ed:0b:09:ec:a4:66:10:fc:99:20:a3:cc:a5:a0:94:
                    4f:a0:ec:88:94:c6:c7:75:4a:5b:9d:c3:99:fc:ba:
                    7b:c8:23:1e:8c:83:48:43:a9:e4:44:32:3f:b6:15:
                    29:5e:3e:25:d0:c4:78:42:c7:81:82:bf:76:da:f5:
                    a2:b2:50:d9:e3:3d:36:b0:6e:15:aa:d9:64:bf:38:
                    b3:be:3e:a9:a6:ab:81:88:0e:e8:83:c4:91:35:1d:
                    a3:cf:b2:09:ea:11:58:62:b0:2d:0c:88:69:2e:d5:
                    1c:b6:ec:bc:aa:f9:38:24:17:e7:3b:03:1d:c5:e3:
                    91:de:1e:95:79:72:75:1e:07:9a:99:47:d8:5b:59:
                    19:6a:b1:aa:48:e9:4d:b2:9c:ef:98:35:33:c8:76:
                    9a:74:77:40:26:76:b8:34:9d:b6:89:b1:e5:48:d8:
                    39:0b
                Exponent: 65537 (0x10001)
        X509v3 extensions:
            X509v3 Basic Constraints: 
                CA:FALSE
            Netscape Comment: 
                OpenSSL Generated Certificate
            X509v3 Subject Key Identifier: 
                D7:93:AB:41:3C:51:54:66:5F:7A:D6:29:60:45:17:AA:C5:CE:15:C0
            X509v3 Authority Key Identifier: 
                keyid:09:2F:AC:7E:33:BF:4E:00:87:EB:5F:3F:01:A8:AC:81:EE:3E:19:26
                DirName:/C=IN/ST=Karnataka/O=Sahi
                serial:D6:8C:78:5C:DF:F5:9E:A3

    Signature Algorithm: sha1WithRSAEncryption
        bc:c4:9e:59:47:19:a4:75:66:9c:92:fc:ba:e6:e4:1c:08:99:
        21:9d:8f:eb:7d:3f:6c:9b:95:4c:23:3a:73:0b:ac:ed:02:27:
        f7:cb:35:b0:1c:cd:5d:b4:6c:60:ee:6f:46:61:61:73:06:46:
        45:a3:91:b6:93:27:91:44:d6:1f:7e:07:0c:78:58:eb:09:01:
        42:e0:21:04:a5:1b:99:b0:b4:ed:c1:82:bb:00:d8:39:61:a2:
        1e:6a:b8:7e:c6:be:79:45:ed:3f:42:fe:19:e8:29:46:d2:ae:
        4a:ee:b1:71:c4:32:9c:12:b8:41:60:c4:5e:10:b7:40:9c:78:
        cb:ac
-----BEGIN CERTIFICATE-----
MIIDSjCCArOgAwIBAgIBFDANBgkqhkiG9w0BAQUFADAwMQswCQYDVQQGEwJJTjES
MBAGA1UECBMJS2FybmF0YWthMQ0wCwYDVQQKEwRTYWhpMB4XDTE1MDQwOTA5MTc1
NVoXDTI1MDQwNjA5MTc1NVowYjELMAkGA1UEBhMCSU4xEjAQBgNVBAgTCUthcm5h
dGFrYTENMAsGA1UEChMEU2FoaTENMAsGA1UECxMEU2FoaTEhMB8GA1UEAxMYd3d3
Lmdvb2dsZS1hbmFseXRpY3MuY29tMIIBIjANBgkqhkiG9w0BAQEFAAOCAQ8AMIIB
CgKCAQEAiCLvWRKItkK3K9NdnTRmPR/RTqjsVWV1F/LSMSGGb8S6gucW1VfPp4dm
SQu+O8rhHGLO8J2E7U9yAKOjEWC/GGodxh7d8LhfR8zhQVF+JH1vJUlg9ZVTS+rt
CwnspGYQ/Jkgo8yloJRPoOyIlMbHdUpbncOZ/Lp7yCMejINIQ6nkRDI/thUpXj4l
0MR4QseBgr922vWislDZ4z02sG4Vqtlkvzizvj6ppquBiA7og8SRNR2jz7IJ6hFY
YrAtDIhpLtUctuy8qvk4JBfnOwMdxeOR3h6VeXJ1HgeamUfYW1kZarGqSOlNspzv
mDUzyHaadHdAJna4NJ22ibHlSNg5CwIDAQABo4G9MIG6MAkGA1UdEwQCMAAwLAYJ
YIZIAYb4QgENBB8WHU9wZW5TU0wgR2VuZXJhdGVkIENlcnRpZmljYXRlMB0GA1Ud
DgQWBBTXk6tBPFFUZl961ilgRReqxc4VwDBgBgNVHSMEWTBXgBQJL6x+M79OAIfr
Xz8BqKyB7j4ZJqE0pDIwMDELMAkGA1UEBhMCSU4xEjAQBgNVBAgTCUthcm5hdGFr
YTENMAsGA1UEChMEU2FoaYIJANaMeFzf9Z6jMA0GCSqGSIb3DQEBBQUAA4GBALzE
nllHGaR1ZpyS/Lrm5BwImSGdj+t9P2yblUwjOnMLrO0CJ/fLNbAczV20bGDub0Zh
YXMGRkWjkbaTJ5FE1h9+Bwx4WOsJAULgIQSlG5mwtO3BgrsA2Dlhoh5quH7GvnlF
7T9C/hnoKUbSrkrusXHEMpwSuEFgxF4Qt0CceMus
-----END CERTIFICATE-----
