Certificate:
    Data:
        Version: 3 (0x2)
        Serial Number: 21 (0x15)
        Signature Algorithm: sha1WithRSAEncryption
        Issuer: C=IN, ST=Karnataka, O=Sahi
        Validity
            Not Before: Apr  9 09:17:57 2015 GMT
            Not After : Apr  6 09:17:57 2025 GMT
        Subject: C=IN, ST=Karnataka, O=Sahi, OU=Sahi, CN=csi.gstatic.com
        Subject Public Key Info:
            Public Key Algorithm: rsaEncryption
            RSA Public Key: (2048 bit)
                Modulus (2048 bit):
                    00:89:73:00:78:1f:ad:30:9b:5d:d5:28:6e:d2:70:
                    1e:5f:ca:0d:85:d3:9c:42:cb:3b:ee:c0:48:50:fd:
                    14:96:05:be:57:bf:e6:54:12:68:6a:c7:a3:25:5b:
                    68:6f:13:33:fb:a2:70:ed:74:ab:2e:c3:90:46:b0:
                    8f:68:30:3c:c8:d5:27:a6:23:45:f1:82:7e:77:c4:
                    f8:aa:03:b1:ba:ec:db:05:d8:99:f5:b6:05:5f:e8:
                    1e:e2:dd:da:96:1f:4a:c7:32:d8:70:fa:73:a9:26:
                    2b:82:6a:e2:39:7e:2a:35:9e:c6:da:2a:71:62:30:
                    c5:5d:fc:8f:b2:ea:8b:8a:0d:35:f8:94:1f:65:03:
                    0d:11:dc:55:2d:d9:33:89:7b:3e:7f:c8:b8:50:65:
                    3d:15:83:8b:f7:4c:f0:1a:9f:0a:ba:5f:8d:87:ef:
                    a0:07:fe:47:b6:fe:e7:ec:f8:e6:22:0f:47:f9:63:
                    c4:3a:50:26:28:e4:29:c3:cf:83:0c:2d:77:c9:57:
                    34:43:c7:2e:4f:33:98:85:cb:9f:f9:43:d4:ab:19:
                    3e:0a:9b:38:01:c4:87:5d:f6:b9:35:3a:0f:95:9c:
                    d1:0c:b5:f0:14:d9:7a:62:18:a3:21:bf:4d:5d:54:
                    fc:90:89:b6:c1:ca:88:f0:af:57:11:a3:1b:7d:f8:
                    87:59
                Exponent: 65537 (0x10001)
        X509v3 extensions:
            X509v3 Basic Constraints: 
                CA:FALSE
            Netscape Comment: 
                OpenSSL Generated Certificate
            X509v3 Subject Key Identifier: 
                B1:2D:49:76:AC:CC:CD:60:39:91:AF:31:7D:CE:08:D1:06:BF:B0:67
            X509v3 Authority Key Identifier: 
                keyid:09:2F:AC:7E:33:BF:4E:00:87:EB:5F:3F:01:A8:AC:81:EE:3E:19:26
                DirName:/C=IN/ST=Karnataka/O=Sahi
                serial:D6:8C:78:5C:DF:F5:9E:A3

    Signature Algorithm: sha1WithRSAEncryption
        1e:ec:47:5f:ff:7c:67:d1:fd:bc:4e:0f:81:c2:58:c9:c0:61:
        4d:94:6b:b0:47:84:b2:d1:0f:b8:3f:e4:8d:f4:7b:6f:90:58:
        18:e4:38:07:1f:35:46:5a:d5:96:8e:8c:11:8c:43:7a:c5:97:
        ff:f6:03:c3:f2:41:bb:0c:be:b4:bd:3f:be:80:3f:5b:fa:69:
        39:3b:23:aa:b5:7c:f5:e0:7b:87:a6:d2:84:d5:00:20:dd:88:
        a4:92:53:e5:44:6b:ca:f4:ad:5d:d0:1b:88:99:e1:db:a5:dd:
        e3:f6:9e:e6:0f:69:8f:30:f1:3e:3d:12:c6:3d:8e:f8:f1:f6:
        cd:ef
-----BEGIN CERTIFICATE-----
MIIDQTCCAqqgAwIBAgIBFTANBgkqhkiG9w0BAQUFADAwMQswCQYDVQQGEwJJTjES
MBAGA1UECBMJS2FybmF0YWthMQ0wCwYDVQQKEwRTYWhpMB4XDTE1MDQwOTA5MTc1
N1oXDTI1MDQwNjA5MTc1N1owWTELMAkGA1UEBhMCSU4xEjAQBgNVBAgTCUthcm5h
dGFrYTENMAsGA1UEChMEU2FoaTENMAsGA1UECxMEU2FoaTEYMBYGA1UEAxMPY3Np
LmdzdGF0aWMuY29tMIIBIjANBgkqhkiG9w0BAQEFAAOCAQ8AMIIBCgKCAQEAiXMA
eB+tMJtd1Shu0nAeX8oNhdOcQss77sBIUP0UlgW+V7/mVBJoasejJVtobxMz+6Jw
7XSrLsOQRrCPaDA8yNUnpiNF8YJ+d8T4qgOxuuzbBdiZ9bYFX+ge4t3alh9KxzLY
cPpzqSYrgmriOX4qNZ7G2ipxYjDFXfyPsuqLig01+JQfZQMNEdxVLdkziXs+f8i4
UGU9FYOL90zwGp8Kul+Nh++gB/5Htv7n7PjmIg9H+WPEOlAmKOQpw8+DDC13yVc0
Q8cuTzOYhcuf+UPUqxk+Cps4AcSHXfa5NToPlZzRDLXwFNl6YhijIb9NXVT8kIm2
wcqI8K9XEaMbffiHWQIDAQABo4G9MIG6MAkGA1UdEwQCMAAwLAYJYIZIAYb4QgEN
BB8WHU9wZW5TU0wgR2VuZXJhdGVkIENlcnRpZmljYXRlMB0GA1UdDgQWBBSxLUl2
rMzNYDmRrzF9zgjRBr+wZzBgBgNVHSMEWTBXgBQJL6x+M79OAIfrXz8BqKyB7j4Z
JqE0pDIwMDELMAkGA1UEBhMCSU4xEjAQBgNVBAgTCUthcm5hdGFrYTENMAsGA1UE
ChMEU2FoaYIJANaMeFzf9Z6jMA0GCSqGSIb3DQEBBQUAA4GBAB7sR1//fGfR/bxO
D4HCWMnAYU2Ua7BHhLLRD7g/5I30e2+QWBjkOAcfNUZa1ZaOjBGMQ3rFl//2A8Py
QbsMvrS9P76AP1v6aTk7I6q1fPXge4em0oTVACDdiKSSU+VEa8r0rV3QG4iZ4dul
3eP2nuYPaY8w8T49EsY9jvjx9s3v
-----END CERTIFICATE-----
