Certificate:
    Data:
        Version: 3 (0x2)
        Serial Number: 22 (0x16)
        Signature Algorithm: sha1WithRSAEncryption
        Issuer: C=IN, ST=Karnataka, O=Sahi
        Validity
            Not Before: Apr  9 09:39:30 2015 GMT
            Not After : Apr  6 09:39:30 2025 GMT
        Subject: C=IN, ST=Karnataka, O=Sahi, OU=Sahi, CN=inputtools.google.com
        Subject Public Key Info:
            Public Key Algorithm: rsaEncryption
            RSA Public Key: (2048 bit)
                Modulus (2048 bit):
                    00:96:ce:67:08:99:d8:b4:16:f7:6e:f1:73:68:67:
                    db:91:6f:8f:0e:88:15:21:1d:68:59:9c:8f:86:31:
                    e7:5e:82:ba:d3:a9:36:44:6b:41:f4:5a:0d:b0:1f:
                    bc:ff:99:5d:99:ff:09:a0:74:c5:ea:da:07:fd:4d:
                    68:b6:b0:14:78:79:16:3d:c5:ae:ac:f4:5d:fa:25:
                    7b:42:e5:51:b3:c0:1f:cd:8f:17:65:f2:26:75:90:
                    3c:2b:10:1f:ce:0a:c4:0c:3c:8f:ea:dc:3a:fa:4a:
                    10:da:86:13:d5:fa:4e:af:79:5c:93:46:ac:23:44:
                    e5:bf:5c:9c:6c:89:6a:64:ca:03:2d:5d:3b:db:43:
                    9f:34:67:5c:93:ed:5e:59:e0:da:1f:91:4f:fc:ca:
                    83:8a:6e:f7:bf:0d:a4:95:c6:1b:13:96:ae:62:56:
                    63:6d:ef:4b:72:d7:42:37:79:42:1a:f8:90:50:9f:
                    bd:95:7d:57:6c:67:b8:98:11:8f:e6:e9:04:af:ed:
                    69:cd:d9:2c:46:58:f7:3d:6c:25:84:ee:71:ba:78:
                    13:7d:56:fa:23:b2:65:84:9c:f1:0f:a5:c7:5d:42:
                    44:c8:84:33:7b:b6:74:28:9d:5a:7c:e0:e8:13:66:
                    c7:84:69:25:c4:ff:63:b8:e3:9b:5b:ac:bc:d9:5f:
                    c4:09
                Exponent: 65537 (0x10001)
        X509v3 extensions:
            X509v3 Basic Constraints: 
                CA:FALSE
            Netscape Comment: 
                OpenSSL Generated Certificate
            X509v3 Subject Key Identifier: 
                58:53:EB:EB:B5:02:40:A5:EA:95:75:A7:67:06:61:EA:E4:F6:40:38
            X509v3 Authority Key Identifier: 
                keyid:09:2F:AC:7E:33:BF:4E:00:87:EB:5F:3F:01:A8:AC:81:EE:3E:19:26
                DirName:/C=IN/ST=Karnataka/O=Sahi
                serial:D6:8C:78:5C:DF:F5:9E:A3

    Signature Algorithm: sha1WithRSAEncryption
        1e:75:aa:11:13:cd:b6:dc:8e:a9:f9:e8:1d:d5:0c:b9:bb:c0:
        aa:83:44:56:55:32:1a:a8:1e:33:3f:c7:75:8b:fd:52:bc:11:
        21:f1:b6:b5:73:b7:65:ed:17:13:63:92:1d:2b:72:2c:c7:06:
        2f:b8:16:97:8c:55:9f:29:ee:bf:d5:d0:49:5a:5e:66:4e:d6:
        86:e2:98:4b:c3:a8:0c:45:92:a3:c4:4c:e9:3d:d8:eb:2f:3b:
        a3:d1:0b:c1:50:d3:90:62:e4:5f:b2:a0:4b:ff:df:89:10:c7:
        e7:29:59:35:b0:48:00:bc:b9:81:bc:08:9d:55:64:2e:a1:e2:
        24:f2
-----BEGIN CERTIFICATE-----
MIIDRzCCArCgAwIBAgIBFjANBgkqhkiG9w0BAQUFADAwMQswCQYDVQQGEwJJTjES
MBAGA1UECBMJS2FybmF0YWthMQ0wCwYDVQQKEwRTYWhpMB4XDTE1MDQwOTA5Mzkz
MFoXDTI1MDQwNjA5MzkzMFowXzELMAkGA1UEBhMCSU4xEjAQBgNVBAgTCUthcm5h
dGFrYTENMAsGA1UEChMEU2FoaTENMAsGA1UECxMEU2FoaTEeMBwGA1UEAxMVaW5w
dXR0b29scy5nb29nbGUuY29tMIIBIjANBgkqhkiG9w0BAQEFAAOCAQ8AMIIBCgKC
AQEAls5nCJnYtBb3bvFzaGfbkW+PDogVIR1oWZyPhjHnXoK606k2RGtB9FoNsB+8
/5ldmf8JoHTF6toH/U1otrAUeHkWPcWurPRd+iV7QuVRs8AfzY8XZfImdZA8KxAf
zgrEDDyP6tw6+koQ2oYT1fpOr3lck0asI0Tlv1ycbIlqZMoDLV0720OfNGdck+1e
WeDaH5FP/MqDim73vw2klcYbE5auYlZjbe9LctdCN3lCGviQUJ+9lX1XbGe4mBGP
5ukEr+1pzdksRlj3PWwlhO5xungTfVb6I7JlhJzxD6XHXUJEyIQze7Z0KJ1afODo
E2bHhGklxP9juOObW6y82V/ECQIDAQABo4G9MIG6MAkGA1UdEwQCMAAwLAYJYIZI
AYb4QgENBB8WHU9wZW5TU0wgR2VuZXJhdGVkIENlcnRpZmljYXRlMB0GA1UdDgQW
BBRYU+vrtQJApeqVdadnBmHq5PZAODBgBgNVHSMEWTBXgBQJL6x+M79OAIfrXz8B
qKyB7j4ZJqE0pDIwMDELMAkGA1UEBhMCSU4xEjAQBgNVBAgTCUthcm5hdGFrYTEN
MAsGA1UEChMEU2FoaYIJANaMeFzf9Z6jMA0GCSqGSIb3DQEBBQUAA4GBAB51qhET
zbbcjqn56B3VDLm7wKqDRFZVMhqoHjM/x3WL/VK8ESHxtrVzt2XtFxNjkh0rcizH
Bi+4FpeMVZ8p7r/V0ElaXmZO1obimEvDqAxFkqPETOk92OsvO6PRC8FQ05Bi5F+y
oEv/34kQx+cpWTWwSAC8uYG8CJ1VZC6h4iTy
-----END CERTIFICATE-----
