Certificate:
    Data:
        Version: 3 (0x2)
        Serial Number: 23 (0x17)
        Signature Algorithm: sha1WithRSAEncryption
        Issuer: C=IN, ST=Karnataka, O=Sahi
        Validity
            Not Before: Apr  9 09:39:56 2015 GMT
            Not After : Apr  6 09:39:56 2025 GMT
        Subject: C=IN, ST=Karnataka, O=Sahi, OU=Sahi, CN=www.gravatar.com
        Subject Public Key Info:
            Public Key Algorithm: rsaEncryption
            RSA Public Key: (2048 bit)
                Modulus (2048 bit):
                    00:93:47:65:b0:d2:47:ed:cd:36:08:68:0f:fc:dd:
                    3a:6d:2d:c7:a9:7a:e0:0f:57:d5:31:04:50:af:bb:
                    4f:57:06:52:48:91:0d:c1:87:5b:94:f5:c7:8c:06:
                    11:e8:0b:06:b2:5a:25:35:49:77:a6:60:3c:2f:91:
                    53:89:92:fe:7a:75:6a:37:8e:59:b7:d5:db:b9:f8:
                    a9:9e:90:f3:7f:4c:54:63:23:05:9a:e6:c7:9a:2a:
                    5c:1a:6a:09:3f:77:c1:30:d2:2d:91:7e:87:14:81:
                    e1:2f:a5:8b:97:3b:c0:80:23:f9:98:d8:4b:6c:a1:
                    1a:64:6e:a1:f5:e1:cb:e8:ff:9c:48:50:3e:24:ba:
                    af:e0:fa:d6:76:72:87:85:12:a7:ff:a9:b3:6d:89:
                    c4:b0:b2:1f:df:ac:79:f2:ce:49:d6:94:8f:51:79:
                    54:9e:31:6e:38:50:66:98:ed:c1:17:14:d3:81:41:
                    b6:3c:f6:db:32:74:77:ea:92:97:de:65:c7:b2:52:
                    e0:5f:ab:67:34:56:e6:37:b5:23:07:05:ed:1a:9d:
                    ce:fd:b5:d6:7f:88:58:bc:27:97:27:2c:6e:04:cc:
                    a8:11:6c:68:0f:0f:5a:7a:06:f1:03:e4:65:36:bb:
                    04:b0:8a:43:22:7a:9e:84:65:b6:41:a0:8a:52:1c:
                    22:35
                Exponent: 65537 (0x10001)
        X509v3 extensions:
            X509v3 Basic Constraints: 
                CA:FALSE
            Netscape Comment: 
                OpenSSL Generated Certificate
            X509v3 Subject Key Identifier: 
                47:A8:E1:3F:21:97:FE:A3:99:7C:C8:2A:0C:25:AE:23:B9:15:11:D6
            X509v3 Authority Key Identifier: 
                keyid:09:2F:AC:7E:33:BF:4E:00:87:EB:5F:3F:01:A8:AC:81:EE:3E:19:26
                DirName:/C=IN/ST=Karnataka/O=Sahi
                serial:D6:8C:78:5C:DF:F5:9E:A3

    Signature Algorithm: sha1WithRSAEncryption
        db:87:ec:a3:47:a9:79:d7:fd:ed:41:68:52:d4:78:a2:1a:0f:
        c5:7b:4b:62:d1:5d:11:db:7d:db:8b:13:b5:6f:98:99:dd:8b:
        3d:3c:53:06:f8:40:bc:b3:f0:82:6d:c0:ec:d4:89:46:4e:e9:
        c1:8a:4d:72:a5:8f:61:e8:5c:64:b6:da:5f:b0:5d:60:4c:00:
        9c:5c:31:6b:f5:36:e8:c7:80:bf:98:07:09:7d:f4:1f:d9:c0:
        3c:8c:6e:9e:17:13:b3:e2:77:6d:52:4c:7a:46:92:25:13:96:
        74:c9:07:82:45:c2:13:4a:54:c9:d9:2a:6b:76:6f:ba:4d:f3:
        c5:4e
-----BEGIN CERTIFICATE-----
MIIDQjCCAqugAwIBAgIBFzANBgkqhkiG9w0BAQUFADAwMQswCQYDVQQGEwJJTjES
MBAGA1UECBMJS2FybmF0YWthMQ0wCwYDVQQKEwRTYWhpMB4XDTE1MDQwOTA5Mzk1
NloXDTI1MDQwNjA5Mzk1NlowWjELMAkGA1UEBhMCSU4xEjAQBgNVBAgTCUthcm5h
dGFrYTENMAsGA1UEChMEU2FoaTENMAsGA1UECxMEU2FoaTEZMBcGA1UEAxMQd3d3
LmdyYXZhdGFyLmNvbTCCASIwDQYJKoZIhvcNAQEBBQADggEPADCCAQoCggEBAJNH
ZbDSR+3NNghoD/zdOm0tx6l64A9X1TEEUK+7T1cGUkiRDcGHW5T1x4wGEegLBrJa
JTVJd6ZgPC+RU4mS/np1ajeOWbfV27n4qZ6Q839MVGMjBZrmx5oqXBpqCT93wTDS
LZF+hxSB4S+li5c7wIAj+ZjYS2yhGmRuofXhy+j/nEhQPiS6r+D61nZyh4USp/+p
s22JxLCyH9+sefLOSdaUj1F5VJ4xbjhQZpjtwRcU04FBtjz22zJ0d+qSl95lx7JS
4F+rZzRW5je1IwcF7Rqdzv211n+IWLwnlycsbgTMqBFsaA8PWnoG8QPkZTa7BLCK
QyJ6noRltkGgilIcIjUCAwEAAaOBvTCBujAJBgNVHRMEAjAAMCwGCWCGSAGG+EIB
DQQfFh1PcGVuU1NMIEdlbmVyYXRlZCBDZXJ0aWZpY2F0ZTAdBgNVHQ4EFgQUR6jh
PyGX/qOZfMgqDCWuI7kVEdYwYAYDVR0jBFkwV4AUCS+sfjO/TgCH618/Aaisge4+
GSahNKQyMDAxCzAJBgNVBAYTAklOMRIwEAYDVQQIEwlLYXJuYXRha2ExDTALBgNV
BAoTBFNhaGmCCQDWjHhc3/WeozANBgkqhkiG9w0BAQUFAAOBgQDbh+yjR6l51/3t
QWhS1HiiGg/Fe0ti0V0R233bixO1b5iZ3Ys9PFMG+EC8s/CCbcDs1IlGTunBik1y
pY9h6FxkttpfsF1gTACcXDFr9Tbox4C/mAcJffQf2cA8jG6eFxOz4ndtUkx6RpIl
E5Z0yQeCRcITSlTJ2Sprdm+6TfPFTg==
-----END CERTIFICATE-----
