Certificate:
    Data:
        Version: 3 (0x2)
        Serial Number: 24 (0x18)
        Signature Algorithm: sha1WithRSAEncryption
        Issuer: C=IN, ST=Karnataka, O=Sahi
        Validity
            Not Before: Apr  9 09:39:58 2015 GMT
            Not After : Apr  6 09:39:58 2025 GMT
        Subject: C=IN, ST=Karnataka, O=Sahi, OU=Sahi, CN=stackauth.com
        Subject Public Key Info:
            Public Key Algorithm: rsaEncryption
            RSA Public Key: (2048 bit)
                Modulus (2048 bit):
                    00:94:d9:2f:be:49:a5:b9:b2:6d:ba:cc:b5:7a:55:
                    94:fb:60:74:7d:97:4e:a4:62:39:cf:25:64:f4:03:
                    11:63:5d:2c:03:6e:b5:4b:0d:cd:20:65:66:09:3f:
                    fa:a5:4b:70:77:bc:24:f6:a8:56:27:19:e3:20:d7:
                    e8:fe:97:a2:2b:38:0a:5b:7b:e5:d1:99:de:1d:22:
                    6e:e3:9d:9b:9f:2d:fe:d3:38:ab:3c:b9:c8:74:8f:
                    ec:eb:92:bc:0f:fa:1b:b5:24:de:47:b8:01:eb:27:
                    ba:73:e0:38:97:66:9a:82:7d:be:98:15:8e:da:b5:
                    37:10:e2:75:85:4f:24:ed:22:92:d4:09:65:eb:67:
                    40:9f:8c:d1:c5:12:95:68:52:b8:38:88:2b:84:d3:
                    0c:6b:56:88:24:a6:d7:71:13:72:03:92:dc:47:de:
                    71:1b:b8:7a:9c:81:80:10:2d:14:51:cf:63:d9:75:
                    5e:9b:45:53:42:52:1a:28:f9:11:d7:52:88:d7:6c:
                    b9:57:88:21:27:40:b9:50:93:7b:ac:31:3c:57:23:
                    94:a5:53:31:59:65:8a:5f:21:b2:ef:bc:c6:c4:41:
                    50:62:81:78:34:f8:f9:35:a0:9e:ce:36:cc:86:e5:
                    a5:06:6a:0f:2f:58:7d:e1:4e:55:61:07:30:37:ad:
                    09:65
                Exponent: 65537 (0x10001)
        X509v3 extensions:
            X509v3 Basic Constraints: 
                CA:FALSE
            Netscape Comment: 
                OpenSSL Generated Certificate
            X509v3 Subject Key Identifier: 
                27:92:48:B9:3C:82:26:73:F7:25:6B:54:82:48:38:A2:EB:0B:CA:D8
            X509v3 Authority Key Identifier: 
                keyid:09:2F:AC:7E:33:BF:4E:00:87:EB:5F:3F:01:A8:AC:81:EE:3E:19:26
                DirName:/C=IN/ST=Karnataka/O=Sahi
                serial:D6:8C:78:5C:DF:F5:9E:A3

    Signature Algorithm: sha1WithRSAEncryption
        b5:81:82:98:38:1a:69:41:fa:b9:75:a4:7c:a7:fc:2c:08:df:
        fb:8e:2c:33:cf:27:44:c9:60:7f:ec:fc:70:a9:2a:3c:4f:0a:
        77:bf:77:fd:f7:9c:2a:69:f2:6e:4c:a1:92:93:21:0b:9d:35:
        a0:09:9b:40:cf:7e:2b:55:f1:d8:fb:78:5e:ef:05:37:e6:66:
        c7:61:65:7a:a0:44:57:e4:7b:d9:c0:a2:1f:00:57:21:36:3a:
        c3:f4:4a:8a:d9:34:b0:78:3f:e8:94:71:12:76:c6:71:0b:06:
        1d:66:90:e8:29:f5:28:df:eb:3d:c5:31:19:be:93:51:e3:a2:
        18:45
-----BEGIN CERTIFICATE-----
MIIDPzCCAqigAwIBAgIBGDANBgkqhkiG9w0BAQUFADAwMQswCQYDVQQGEwJJTjES
MBAGA1UECBMJS2FybmF0YWthMQ0wCwYDVQQKEwRTYWhpMB4XDTE1MDQwOTA5Mzk1
OFoXDTI1MDQwNjA5Mzk1OFowVzELMAkGA1UEBhMCSU4xEjAQBgNVBAgTCUthcm5h
dGFrYTENMAsGA1UEChMEU2FoaTENMAsGA1UECxMEU2FoaTEWMBQGA1UEAxMNc3Rh
Y2thdXRoLmNvbTCCASIwDQYJKoZIhvcNAQEBBQADggEPADCCAQoCggEBAJTZL75J
pbmybbrMtXpVlPtgdH2XTqRiOc8lZPQDEWNdLANutUsNzSBlZgk/+qVLcHe8JPao
VicZ4yDX6P6Xois4Clt75dGZ3h0ibuOdm58t/tM4qzy5yHSP7OuSvA/6G7Uk3ke4
AesnunPgOJdmmoJ9vpgVjtq1NxDidYVPJO0iktQJZetnQJ+M0cUSlWhSuDiIK4TT
DGtWiCSm13ETcgOS3EfecRu4epyBgBAtFFHPY9l1XptFU0JSGij5EddSiNdsuVeI
ISdAuVCTe6wxPFcjlKVTMVllil8hsu+8xsRBUGKBeDT4+TWgns42zIblpQZqDy9Y
feFOVWEHMDetCWUCAwEAAaOBvTCBujAJBgNVHRMEAjAAMCwGCWCGSAGG+EIBDQQf
Fh1PcGVuU1NMIEdlbmVyYXRlZCBDZXJ0aWZpY2F0ZTAdBgNVHQ4EFgQUJ5JIuTyC
JnP3JWtUgkg4ousLytgwYAYDVR0jBFkwV4AUCS+sfjO/TgCH618/Aaisge4+GSah
NKQyMDAxCzAJBgNVBAYTAklOMRIwEAYDVQQIEwlLYXJuYXRha2ExDTALBgNVBAoT
BFNhaGmCCQDWjHhc3/WeozANBgkqhkiG9w0BAQUFAAOBgQC1gYKYOBppQfq5daR8
p/wsCN/7jiwzzydEyWB/7PxwqSo8Twp3v3f995wqafJuTKGSkyELnTWgCZtAz34r
VfHY+3he7wU35mbHYWV6oERX5HvZwKIfAFchNjrD9EqK2TSweD/olHESdsZxCwYd
ZpDoKfUo3+s9xTEZvpNR46IYRQ==
-----END CERTIFICATE-----
