Certificate:
    Data:
        Version: 3 (0x2)
        Serial Number: 25 (0x19)
        Signature Algorithm: sha1WithRSAEncryption
        Issuer: C=IN, ST=Karnataka, O=Sahi
        Validity
            Not Before: Apr  9 09:40:00 2015 GMT
            Not After : Apr  6 09:40:00 2025 GMT
        Subject: C=IN, ST=Karnataka, O=Sahi, OU=Sahi, CN=adzerk-www.s3.amazonaws.com
        Subject Public Key Info:
            Public Key Algorithm: rsaEncryption
            RSA Public Key: (2048 bit)
                Modulus (2048 bit):
                    00:88:e7:06:c0:06:38:ae:bf:1b:a7:4a:e6:49:1c:
                    04:6c:c4:49:64:00:dc:2f:99:a8:76:9d:e1:21:0b:
                    87:2f:d5:ec:65:b2:af:93:9c:c3:02:07:f0:f2:60:
                    45:13:67:9c:8b:0e:b0:69:77:83:0a:f4:5a:f0:23:
                    73:b3:7d:da:55:9c:b3:98:ff:34:18:7d:b6:3b:1b:
                    4d:9f:4b:85:e3:b3:18:09:70:71:29:f5:90:e5:12:
                    ad:54:67:c0:6a:f3:dd:a9:32:84:ec:13:fd:cb:36:
                    24:ea:ec:fe:78:14:6c:c0:96:64:6d:65:75:06:11:
                    45:4b:26:16:c1:00:31:a9:94:15:05:61:65:01:27:
                    9b:94:76:0d:e1:85:ac:01:8e:48:32:6b:4c:32:0b:
                    5f:36:ae:35:b7:45:0c:e3:25:68:2b:72:7f:51:e7:
                    85:e8:a9:56:8c:f2:db:f7:9f:ba:40:8b:cc:22:9c:
                    69:9a:36:1b:3b:48:b1:80:66:6a:4b:ff:c1:b0:c4:
                    9d:c4:70:55:c8:16:4b:bb:37:f3:c0:19:d0:6d:76:
                    80:ae:35:f3:6e:71:de:4d:b5:bf:e5:51:45:8b:53:
                    90:c0:f1:57:be:79:e0:3a:72:60:2c:c7:99:75:e9:
                    11:a9:a9:2c:ca:bc:6d:1b:57:60:c5:d9:df:96:79:
                    8c:2f
                Exponent: 65537 (0x10001)
        X509v3 extensions:
            X509v3 Basic Constraints: 
                CA:FALSE
            Netscape Comment: 
                OpenSSL Generated Certificate
            X509v3 Subject Key Identifier: 
                6D:AA:6D:BA:2D:D2:A5:30:33:77:0F:74:BE:71:CF:A4:4F:50:4C:0D
            X509v3 Authority Key Identifier: 
                keyid:09:2F:AC:7E:33:BF:4E:00:87:EB:5F:3F:01:A8:AC:81:EE:3E:19:26
                DirName:/C=IN/ST=Karnataka/O=Sahi
                serial:D6:8C:78:5C:DF:F5:9E:A3

    Signature Algorithm: sha1WithRSAEncryption
        43:0f:a3:b5:bd:81:4e:41:6c:27:d4:ea:36:86:5c:94:76:7b:
        91:d3:1d:f1:ed:c9:90:b5:16:a2:ff:d8:1f:84:f0:35:db:31:
        51:b6:49:70:99:19:ab:89:3d:f7:d4:1d:98:fc:1c:4d:48:68:
        21:47:f9:12:ff:3b:bb:29:e2:e1:83:72:9d:2a:24:8b:e3:ca:
        08:01:84:40:d8:93:97:c1:7c:91:2e:ab:37:59:72:6e:ed:99:
        ac:4a:33:de:38:af:01:35:eb:58:ae:e7:72:75:49:01:32:b1:
        96:e1:61:c9:e1:72:ba:c9:d7:e9:0c:e9:78:c6:5e:e6:96:e3:
        90:d6
-----BEGIN CERTIFICATE-----
MIIDTTCCAragAwIBAgIBGTANBgkqhkiG9w0BAQUFADAwMQswCQYDVQQGEwJJTjES
MBAGA1UECBMJS2FybmF0YWthMQ0wCwYDVQQKEwRTYWhpMB4XDTE1MDQwOTA5NDAw
MFoXDTI1MDQwNjA5NDAwMFowZTELMAkGA1UEBhMCSU4xEjAQBgNVBAgTCUthcm5h
dGFrYTENMAsGA1UEChMEU2FoaTENMAsGA1UECxMEU2FoaTEkMCIGA1UEAxMbYWR6
ZXJrLXd3dy5zMy5hbWF6b25hd3MuY29tMIIBIjANBgkqhkiG9w0BAQEFAAOCAQ8A
MIIBCgKCAQEAiOcGwAY4rr8bp0rmSRwEbMRJZADcL5modp3hIQuHL9XsZbKvk5zD
Agfw8mBFE2eciw6waXeDCvRa8CNzs33aVZyzmP80GH22OxtNn0uF47MYCXBxKfWQ
5RKtVGfAavPdqTKE7BP9yzYk6uz+eBRswJZkbWV1BhFFSyYWwQAxqZQVBWFlASeb
lHYN4YWsAY5IMmtMMgtfNq41t0UM4yVoK3J/UeeF6KlWjPLb95+6QIvMIpxpmjYb
O0ixgGZqS//BsMSdxHBVyBZLuzfzwBnQbXaArjXzbnHeTbW/5VFFi1OQwPFXvnng
OnJgLMeZdekRqaksyrxtG1dgxdnflnmMLwIDAQABo4G9MIG6MAkGA1UdEwQCMAAw
LAYJYIZIAYb4QgENBB8WHU9wZW5TU0wgR2VuZXJhdGVkIENlcnRpZmljYXRlMB0G
A1UdDgQWBBRtqm26LdKlMDN3D3S+cc+kT1BMDTBgBgNVHSMEWTBXgBQJL6x+M79O
AIfrXz8BqKyB7j4ZJqE0pDIwMDELMAkGA1UEBhMCSU4xEjAQBgNVBAgTCUthcm5h
dGFrYTENMAsGA1UEChMEU2FoaYIJANaMeFzf9Z6jMA0GCSqGSIb3DQEBBQUAA4GB
AEMPo7W9gU5BbCfU6jaGXJR2e5HTHfHtyZC1FqL/2B+E8DXbMVG2SXCZGauJPffU
HZj8HE1IaCFH+RL/O7sp4uGDcp0qJIvjyggBhEDYk5fBfJEuqzdZcm7tmaxKM944
rwE161iu53J1SQEysZbhYcnhcrrJ1+kM6XjGXuaW45DW
-----END CERTIFICATE-----
