Certificate:
    Data:
        Version: 3 (0x2)
        Serial Number: 26 (0x1a)
        Signature Algorithm: sha1WithRSAEncryption
        Issuer: C=IN, ST=Karnataka, O=Sahi
        Validity
            Not Before: Apr  9 09:42:45 2015 GMT
            Not After : Apr  6 09:42:45 2025 GMT
        Subject: C=IN, ST=Karnataka, O=Sahi, OU=Sahi, CN=www.w3counter.com
        Subject Public Key Info:
            Public Key Algorithm: rsaEncryption
            RSA Public Key: (2048 bit)
                Modulus (2048 bit):
                    00:9a:70:ef:8a:16:58:d5:f2:7e:a2:0a:69:ea:a9:
                    71:50:eb:cf:fa:26:53:05:ac:97:e6:82:a1:2f:65:
                    7a:b9:66:c2:12:56:03:50:b7:f6:45:e0:d7:27:18:
                    79:bb:5d:3b:18:6c:6b:15:57:35:c8:6e:af:3c:dd:
                    8d:a6:d4:17:5d:fa:b7:55:ee:7d:a8:08:4f:bf:2c:
                    c8:31:70:32:ad:ae:db:1c:e7:6e:fc:b5:7d:d2:fd:
                    ac:bf:c4:ba:b0:84:32:58:29:c8:f5:cf:37:c9:92:
                    6f:c1:e0:36:bb:15:94:8a:0b:46:ff:6b:91:37:00:
                    c0:4f:87:78:3b:5d:1c:fc:62:54:95:85:47:a8:73:
                    1c:a1:d4:6c:84:e2:f2:45:50:a2:94:4e:d5:e6:fa:
                    bc:fc:1b:03:26:1c:6b:40:a4:df:d8:f1:54:eb:dd:
                    88:84:09:24:36:e0:38:d5:62:7d:63:1f:a4:d9:47:
                    a9:05:a8:66:96:a4:e4:b9:87:b9:4b:ee:e2:ce:ab:
                    a6:c8:da:fb:28:11:b1:cb:6e:bc:db:f7:e5:9e:ce:
                    bc:2f:fe:1c:cd:64:37:03:d1:bd:6b:99:e1:bf:fa:
                    12:e7:31:99:17:a5:31:eb:36:6c:d6:12:86:c9:22:
                    2b:93:a2:64:c2:26:8f:18:94:0c:a9:67:73:0f:16:
                    0d:97
                Exponent: 65537 (0x10001)
        X509v3 extensions:
            X509v3 Basic Constraints: 
                CA:FALSE
            Netscape Comment: 
                OpenSSL Generated Certificate
            X509v3 Subject Key Identifier: 
                11:1F:92:B0:51:F7:60:CA:66:09:3C:4B:5B:1B:1E:ED:73:9D:14:81
            X509v3 Authority Key Identifier: 
                keyid:09:2F:AC:7E:33:BF:4E:00:87:EB:5F:3F:01:A8:AC:81:EE:3E:19:26
                DirName:/C=IN/ST=Karnataka/O=Sahi
                serial:D6:8C:78:5C:DF:F5:9E:A3

    Signature Algorithm: sha1WithRSAEncryption
        39:3f:b9:eb:5e:9a:e3:b8:1d:95:27:83:62:3e:83:ac:36:e7:
        f9:1c:a4:91:bd:a8:af:d8:be:5e:0f:03:80:3c:15:96:d9:d4:
        f8:7c:02:91:55:da:b1:7b:ce:aa:cc:67:32:34:99:ff:92:f4:
        78:87:8f:a7:79:ff:4f:a1:aa:53:13:38:e0:b3:47:98:90:ea:
        75:cb:bb:fb:43:be:3b:97:f9:39:d4:66:c0:85:07:30:07:7a:
        88:c7:f0:2c:6c:3d:67:c4:25:f4:da:bb:f0:6f:99:a0:d3:a7:
        f5:94:4a:50:9d:b0:ea:26:1f:3c:85:fb:32:42:fc:d7:bd:fb:
        4a:20
-----BEGIN CERTIFICATE-----
MIIDQzCCAqygAwIBAgIBGjANBgkqhkiG9w0BAQUFADAwMQswCQYDVQQGEwJJTjES
MBAGA1UECBMJS2FybmF0YWthMQ0wCwYDVQQKEwRTYWhpMB4XDTE1MDQwOTA5NDI0
NVoXDTI1MDQwNjA5NDI0NVowWzELMAkGA1UEBhMCSU4xEjAQBgNVBAgTCUthcm5h
dGFrYTENMAsGA1UEChMEU2FoaTENMAsGA1UECxMEU2FoaTEaMBgGA1UEAxMRd3d3
LnczY291bnRlci5jb20wggEiMA0GCSqGSIb3DQEBAQUAA4IBDwAwggEKAoIBAQCa
cO+KFljV8n6iCmnqqXFQ68/6JlMFrJfmgqEvZXq5ZsISVgNQt/ZF4NcnGHm7XTsY
bGsVVzXIbq883Y2m1Bdd+rdV7n2oCE+/LMgxcDKtrtsc5278tX3S/ay/xLqwhDJY
Kcj1zzfJkm/B4Da7FZSKC0b/a5E3AMBPh3g7XRz8YlSVhUeocxyh1GyE4vJFUKKU
TtXm+rz8GwMmHGtApN/Y8VTr3YiECSQ24DjVYn1jH6TZR6kFqGaWpOS5h7lL7uLO
q6bI2vsoEbHLbrzb9+Wezrwv/hzNZDcD0b1rmeG/+hLnMZkXpTHrNmzWEobJIiuT
omTCJo8YlAypZ3MPFg2XAgMBAAGjgb0wgbowCQYDVR0TBAIwADAsBglghkgBhvhC
AQ0EHxYdT3BlblNTTCBHZW5lcmF0ZWQgQ2VydGlmaWNhdGUwHQYDVR0OBBYEFBEf
krBR92DKZgk8S1sbHu1znRSBMGAGA1UdIwRZMFeAFAkvrH4zv04Ah+tfPwGorIHu
PhkmoTSkMjAwMQswCQYDVQQGEwJJTjESMBAGA1UECBMJS2FybmF0YWthMQ0wCwYD
VQQKEwRTYWhpggkA1ox4XN/1nqMwDQYJKoZIhvcNAQEFBQADgYEAOT+5616a47gd
lSeDYj6DrDbn+Rykkb2or9i+Xg8DgDwVltnU+HwCkVXasXvOqsxnMjSZ/5L0eIeP
p3n/T6GqUxM44LNHmJDqdcu7+0O+O5f5OdRmwIUHMAd6iMfwLGw9Z8Ql9Nq78G+Z
oNOn9ZRKUJ2w6iYfPIX7MkL81737SiA=
-----END CERTIFICATE-----
