Certificate:
    Data:
        Version: 3 (0x2)
        Serial Number: 27 (0x1b)
        Signature Algorithm: sha1WithRSAEncryption
        Issuer: C=IN, ST=Karnataka, O=Sahi
        Validity
            Not Before: Apr  9 09:42:46 2015 GMT
            Not After : Apr  6 09:42:46 2025 GMT
        Subject: C=IN, ST=Karnataka, O=Sahi, OU=Sahi, CN=b12.myspace.com
        Subject Public Key Info:
            Public Key Algorithm: rsaEncryption
            RSA Public Key: (2048 bit)
                Modulus (2048 bit):
                    00:db:e4:ac:02:96:83:7b:b2:9a:ce:d6:ec:7c:37:
                    06:6d:72:13:51:b2:d4:1f:4a:48:bb:c7:d4:92:6e:
                    e9:d5:dc:18:72:55:94:5f:7c:68:9c:cf:c1:aa:ff:
                    d9:c6:d0:09:b5:63:39:49:14:86:13:3f:e4:30:79:
                    54:bd:58:e7:4a:c0:f2:28:f5:c5:e4:4f:55:1e:96:
                    f3:65:2e:6b:3d:ed:91:78:93:1d:18:a4:ed:c9:5e:
                    eb:30:93:3f:49:0f:cb:df:84:ac:39:d9:6b:f0:f4:
                    04:4b:36:51:9c:c6:0a:7b:39:51:99:cf:7b:d5:f6:
                    59:43:fd:b1:8e:85:a3:9b:98:fc:08:52:cc:c2:10:
                    b0:dd:d0:07:fc:5f:51:14:3d:ba:f8:f5:0c:71:1b:
                    ad:59:6f:98:75:7d:5f:a7:86:a6:96:f7:58:91:56:
                    30:3b:64:87:49:7c:cc:d8:a1:b3:b3:8c:24:d9:3e:
                    b7:56:87:cf:a2:ab:9b:e8:46:bb:50:4d:b9:c7:c3:
                    3f:a8:bb:6c:20:53:99:cb:7b:0b:82:e2:14:1a:5c:
                    5f:20:41:d8:03:6d:30:a3:ad:48:b9:53:f6:5d:e6:
                    aa:35:3e:fd:af:34:f0:68:8b:c6:b1:e5:9f:4c:8c:
                    25:92:88:72:a0:22:e1:ba:b3:48:be:a7:57:fc:06:
                    63:05
                Exponent: 65537 (0x10001)
        X509v3 extensions:
            X509v3 Basic Constraints: 
                CA:FALSE
            Netscape Comment: 
                OpenSSL Generated Certificate
            X509v3 Subject Key Identifier: 
                1C:28:B4:8C:89:86:10:CD:C4:55:C0:8D:02:E7:E0:64:2D:B8:5E:95
            X509v3 Authority Key Identifier: 
                keyid:09:2F:AC:7E:33:BF:4E:00:87:EB:5F:3F:01:A8:AC:81:EE:3E:19:26
                DirName:/C=IN/ST=Karnataka/O=Sahi
                serial:D6:8C:78:5C:DF:F5:9E:A3

    Signature Algorithm: sha1WithRSAEncryption
        80:4b:62:b0:4c:46:f8:04:24:ac:16:c3:ce:a1:2b:6d:02:ea:
        fe:17:2c:14:a0:3d:07:bb:98:f5:ba:79:94:fc:e9:a0:61:b0:
        a6:4c:cc:50:ba:46:f4:3b:5d:e6:0c:78:92:8a:c2:6e:11:e3:
        8b:89:56:6f:07:36:ae:00:d2:29:1d:6b:45:d5:7b:03:da:ee:
        1a:ed:46:9b:8f:7e:a3:aa:10:2a:4b:8d:57:90:87:57:cd:4b:
        74:b3:9f:39:eb:ad:24:32:21:55:fa:df:59:85:76:db:32:01:
        3e:8e:91:3f:90:4e:b8:c1:ec:58:24:50:ec:d7:5f:de:59:3b:
        f8:bb
-----BEGIN CERTIFICATE-----
MIIDQTCCAqqgAwIBAgIBGzANBgkqhkiG9w0BAQUFADAwMQswCQYDVQQGEwJJTjES
MBAGA1UECBMJS2FybmF0YWthMQ0wCwYDVQQKEwRTYWhpMB4XDTE1MDQwOTA5NDI0
NloXDTI1MDQwNjA5NDI0NlowWTELMAkGA1UEBhMCSU4xEjAQBgNVBAgTCUthcm5h
dGFrYTENMAsGA1UEChMEU2FoaTENMAsGA1UECxMEU2FoaTEYMBYGA1UEAxMPYjEy
Lm15c3BhY2UuY29tMIIBIjANBgkqhkiG9w0BAQEFAAOCAQ8AMIIBCgKCAQEA2+Ss
ApaDe7KaztbsfDcGbXITUbLUH0pIu8fUkm7p1dwYclWUX3xonM/Bqv/ZxtAJtWM5
SRSGEz/kMHlUvVjnSsDyKPXF5E9VHpbzZS5rPe2ReJMdGKTtyV7rMJM/SQ/L34Ss
Odlr8PQESzZRnMYKezlRmc971fZZQ/2xjoWjm5j8CFLMwhCw3dAH/F9RFD26+PUM
cRutWW+YdX1fp4amlvdYkVYwO2SHSXzM2KGzs4wk2T63VofPoqub6Ea7UE25x8M/
qLtsIFOZy3sLguIUGlxfIEHYA20wo61IuVP2XeaqNT79rzTwaIvGseWfTIwlkohy
oCLhurNIvqdX/AZjBQIDAQABo4G9MIG6MAkGA1UdEwQCMAAwLAYJYIZIAYb4QgEN
BB8WHU9wZW5TU0wgR2VuZXJhdGVkIENlcnRpZmljYXRlMB0GA1UdDgQWBBQcKLSM
iYYQzcRVwI0C5+BkLbhelTBgBgNVHSMEWTBXgBQJL6x+M79OAIfrXz8BqKyB7j4Z
JqE0pDIwMDELMAkGA1UEBhMCSU4xEjAQBgNVBAgTCUthcm5hdGFrYTENMAsGA1UE
ChMEU2FoaYIJANaMeFzf9Z6jMA0GCSqGSIb3DQEBBQUAA4GBAIBLYrBMRvgEJKwW
w86hK20C6v4XLBSgPQe7mPW6eZT86aBhsKZMzFC6RvQ7XeYMeJKKwm4R44uJVm8H
Nq4A0ikda0XVewPa7hrtRpuPfqOqECpLjVeQh1fNS3SznznrrSQyIVX631mFdtsy
AT6OkT+QTrjB7FgkUOzXX95ZO/i7
-----END CERTIFICATE-----
