Certificate:
    Data:
        Version: 3 (0x2)
        Serial Number: 28 (0x1c)
        Signature Algorithm: sha1WithRSAEncryption
        Issuer: C=IN, ST=Karnataka, O=Sahi
        Validity
            Not Before: Apr  9 09:43:08 2015 GMT
            Not After : Apr  6 09:43:08 2025 GMT
        Subject: C=IN, ST=Karnataka, O=Sahi, OU=Sahi, CN=stats.g.doubleclick.net
        Subject Public Key Info:
            Public Key Algorithm: rsaEncryption
            RSA Public Key: (2048 bit)
                Modulus (2048 bit):
                    00:8d:10:97:c1:2a:cc:5d:da:29:0e:27:ed:ab:e0:
                    56:98:8c:31:3e:47:10:44:e5:19:9c:ac:33:00:fd:
                    9e:4c:59:f7:ad:f3:29:97:c8:b7:8a:bc:16:22:e2:
                    bc:b9:83:bc:b5:fb:27:da:9e:0c:92:3a:19:85:4a:
                    c1:66:1d:66:8a:94:59:20:52:54:fc:56:fb:73:b7:
                    49:f2:dc:3c:c6:1e:1a:c1:00:9e:55:1b:19:48:2e:
                    8a:62:18:4b:4c:da:ee:d9:a3:f0:47:35:bd:eb:64:
                    6f:e0:9a:57:7f:53:2e:b8:34:16:4d:70:b6:44:f7:
                    d9:74:49:03:0e:ec:b6:0d:07:fa:e4:de:4d:1b:dc:
                    1d:50:cf:75:95:4b:23:50:45:a0:f0:ac:c2:de:e7:
                    e8:c2:4e:4a:13:bf:f2:f7:bd:cc:eb:df:2c:51:19:
                    87:8d:5d:5f:bf:b0:42:39:e4:bc:03:9c:da:61:62:
                    01:a5:14:7b:3a:c5:b1:e8:e2:fc:23:76:93:de:0b:
                    90:72:b6:3b:20:27:d8:99:0f:0d:9f:24:5c:2a:c2:
                    5e:5f:16:f8:32:c8:eb:b9:aa:03:e7:38:fb:81:46:
                    2e:46:00:9d:b1:41:39:6a:0e:24:fa:d6:f0:d7:79:
                    8a:a9:9d:94:7e:90:27:ec:4c:80:ad:ff:5c:18:f6:
                    10:3d
                Exponent: 65537 (0x10001)
        X509v3 extensions:
            X509v3 Basic Constraints: 
                CA:FALSE
            Netscape Comment: 
                OpenSSL Generated Certificate
            X509v3 Subject Key Identifier: 
                30:6E:36:BF:06:B8:19:D8:7F:95:36:21:92:54:D5:58:74:57:85:77
            X509v3 Authority Key Identifier: 
                keyid:09:2F:AC:7E:33:BF:4E:00:87:EB:5F:3F:01:A8:AC:81:EE:3E:19:26
                DirName:/C=IN/ST=Karnataka/O=Sahi
                serial:D6:8C:78:5C:DF:F5:9E:A3

    Signature Algorithm: sha1WithRSAEncryption
        29:4f:0b:df:20:54:08:e1:97:54:e7:85:0e:7b:ed:df:5c:0d:
        1e:57:fe:1f:a3:b9:f1:3e:85:a2:ef:bf:d3:65:08:00:d8:a2:
        46:8e:1b:e6:59:71:45:15:7d:1f:73:aa:0b:33:ca:58:1e:2d:
        b9:11:32:ea:cf:ff:5d:b7:5a:87:cb:c7:20:05:d9:6b:c7:e5:
        a6:5a:2f:25:37:19:98:36:ee:e7:f3:b6:82:f9:83:39:b7:f5:
        09:d7:f1:d2:eb:5c:c3:bc:8a:47:d2:20:05:6d:e1:dd:48:42:
        5b:bb:7b:5c:73:1b:d5:65:66:ea:8c:eb:54:09:c0:6f:00:ec:
        65:ab
-----BEGIN CERTIFICATE-----
MIIDSTCCArKgAwIBAgIBHDANBgkqhkiG9w0BAQUFADAwMQswCQYDVQQGEwJJTjES
MBAGA1UECBMJS2FybmF0YWthMQ0wCwYDVQQKEwRTYWhpMB4XDTE1MDQwOTA5NDMw
OFoXDTI1MDQwNjA5NDMwOFowYTELMAkGA1UEBhMCSU4xEjAQBgNVBAgTCUthcm5h
dGFrYTENMAsGA1UEChMEU2FoaTENMAsGA1UECxMEU2FoaTEgMB4GA1UEAxMXc3Rh
dHMuZy5kb3VibGVjbGljay5uZXQwggEiMA0GCSqGSIb3DQEBAQUAA4IBDwAwggEK
AoIBAQCNEJfBKsxd2ikOJ+2r4FaYjDE+RxBE5RmcrDMA/Z5MWfet8ymXyLeKvBYi
4ry5g7y1+yfangySOhmFSsFmHWaKlFkgUlT8Vvtzt0ny3DzGHhrBAJ5VGxlILopi
GEtM2u7Zo/BHNb3rZG/gmld/Uy64NBZNcLZE99l0SQMO7LYNB/rk3k0b3B1Qz3WV
SyNQRaDwrMLe5+jCTkoTv/L3vczr3yxRGYeNXV+/sEI55LwDnNphYgGlFHs6xbHo
4vwjdpPeC5BytjsgJ9iZDw2fJFwqwl5fFvgyyOu5qgPnOPuBRi5GAJ2xQTlqDiT6
1vDXeYqpnZR+kCfsTICt/1wY9hA9AgMBAAGjgb0wgbowCQYDVR0TBAIwADAsBglg
hkgBhvhCAQ0EHxYdT3BlblNTTCBHZW5lcmF0ZWQgQ2VydGlmaWNhdGUwHQYDVR0O
BBYEFDBuNr8GuBnYf5U2IZJU1Vh0V4V3MGAGA1UdIwRZMFeAFAkvrH4zv04Ah+tf
PwGorIHuPhkmoTSkMjAwMQswCQYDVQQGEwJJTjESMBAGA1UECBMJS2FybmF0YWth
MQ0wCwYDVQQKEwRTYWhpggkA1ox4XN/1nqMwDQYJKoZIhvcNAQEFBQADgYEAKU8L
3yBUCOGXVOeFDnvt31wNHlf+H6O58T6Fou+/02UIANiiRo4b5llxRRV9H3OqCzPK
WB4tuREy6s//Xbdah8vHIAXZa8flplovJTcZmDbu5/O2gvmDObf1Cdfx0utcw7yK
R9IgBW3h3UhCW7t7XHMb1WVm6ozrVAnAbwDsZas=
-----END CERTIFICATE-----
