Certificate:
    Data:
        Version: 3 (0x2)
        Serial Number: 29 (0x1d)
        Signature Algorithm: sha1WithRSAEncryption
        Issuer: C=IN, ST=Karnataka, O=Sahi
        Validity
            Not Before: Apr  9 09:43:09 2015 GMT
            Not After : Apr  6 09:43:09 2025 GMT
        Subject: C=IN, ST=Karnataka, O=Sahi, OU=Sahi, CN=googleads.g.doubleclick.net
        Subject Public Key Info:
            Public Key Algorithm: rsaEncryption
            RSA Public Key: (2048 bit)
                Modulus (2048 bit):
                    00:a3:98:bb:0a:1b:39:dc:3d:68:bf:d2:ba:1f:ef:
                    5b:37:ab:8a:97:35:b6:01:15:ac:7d:62:39:5b:97:
                    d9:23:a3:6d:10:4e:06:4b:2b:76:c8:34:96:aa:2d:
                    d2:aa:b1:df:65:83:ac:58:9a:7b:ea:c5:e9:3d:4e:
                    49:45:81:fe:06:8d:db:6b:20:91:4b:5c:49:d4:86:
                    7b:c7:f0:d2:05:a3:6e:f6:33:cf:8c:a6:7d:da:86:
                    f3:c8:63:31:d1:c6:3f:2c:22:7f:0a:d7:28:63:8f:
                    a1:35:e0:71:64:7b:eb:f4:81:b0:ec:44:ad:54:a3:
                    e8:69:9c:55:f9:b9:6e:fc:bb:b2:47:47:1e:48:84:
                    dc:52:ea:23:6e:45:5a:b8:a2:94:34:36:ae:d5:bc:
                    22:1b:a1:46:23:e5:f3:65:41:b4:5f:a1:26:98:52:
                    af:e6:37:42:5e:c8:7b:97:31:ec:27:08:4a:39:35:
                    ac:87:b5:52:40:31:01:39:59:14:dd:6d:ed:6e:08:
                    8c:7b:7f:f5:ea:f1:90:8b:8a:27:d3:3c:11:6d:2f:
                    b1:e5:23:58:ef:b7:a1:98:e4:cc:c0:08:8e:21:44:
                    4b:35:58:7c:1e:c4:2b:95:10:94:20:f9:79:14:cd:
                    ce:0a:17:cb:0a:66:44:e4:79:d1:64:41:67:23:45:
                    a6:ad
                Exponent: 65537 (0x10001)
        X509v3 extensions:
            X509v3 Basic Constraints: 
                CA:FALSE
            Netscape Comment: 
                OpenSSL Generated Certificate
            X509v3 Subject Key Identifier: 
                D9:0A:C0:57:FD:41:1F:74:76:84:CA:FD:FD:B1:71:F6:5A:F0:67:BA
            X509v3 Authority Key Identifier: 
                keyid:09:2F:AC:7E:33:BF:4E:00:87:EB:5F:3F:01:A8:AC:81:EE:3E:19:26
                DirName:/C=IN/ST=Karnataka/O=Sahi
                serial:D6:8C:78:5C:DF:F5:9E:A3

    Signature Algorithm: sha1WithRSAEncryption
        4c:43:e5:04:d5:88:b6:19:9c:f3:0b:42:bb:6f:29:ee:8a:ed:
        93:ec:e3:ce:51:ab:4b:44:52:06:b7:ab:f4:42:a6:4e:44:7e:
        cc:7b:5b:99:76:e7:4a:ea:5f:ea:18:12:5b:bf:88:33:2a:2a:
        39:20:30:48:b6:d0:5f:b2:3f:60:f6:10:97:85:06:75:36:76:
        43:2e:9a:27:79:d7:02:5f:e5:71:1b:e4:12:18:42:0d:05:c7:
        af:f9:a2:97:27:40:30:17:2b:be:29:c2:4e:35:17:c9:21:66:
        43:e2:4f:d0:8b:dd:ea:bd:46:8a:d0:ae:b3:97:32:85:69:2b:
        66:f3
-----BEGIN CERTIFICATE-----
MIIDTTCCAragAwIBAgIBHTANBgkqhkiG9w0BAQUFADAwMQswCQYDVQQGEwJJTjES
MBAGA1UECBMJS2FybmF0YWthMQ0wCwYDVQQKEwRTYWhpMB4XDTE1MDQwOTA5NDMw
OVoXDTI1MDQwNjA5NDMwOVowZTELMAkGA1UEBhMCSU4xEjAQBgNVBAgTCUthcm5h
dGFrYTENMAsGA1UEChMEU2FoaTENMAsGA1UECxMEU2FoaTEkMCIGA1UEAxMbZ29v
Z2xlYWRzLmcuZG91YmxlY2xpY2submV0MIIBIjANBgkqhkiG9w0BAQEFAAOCAQ8A
MIIBCgKCAQEAo5i7Chs53D1ov9K6H+9bN6uKlzW2ARWsfWI5W5fZI6NtEE4GSyt2
yDSWqi3SqrHfZYOsWJp76sXpPU5JRYH+Bo3bayCRS1xJ1IZ7x/DSBaNu9jPPjKZ9
2obzyGMx0cY/LCJ/CtcoY4+hNeBxZHvr9IGw7EStVKPoaZxV+blu/LuyR0ceSITc
UuojbkVauKKUNDau1bwiG6FGI+XzZUG0X6EmmFKv5jdCXsh7lzHsJwhKOTWsh7VS
QDEBOVkU3W3tbgiMe3/16vGQi4on0zwRbS+x5SNY77ehmOTMwAiOIURLNVh8HsQr
lRCUIPl5FM3OChfLCmZE5HnRZEFnI0WmrQIDAQABo4G9MIG6MAkGA1UdEwQCMAAw
LAYJYIZIAYb4QgENBB8WHU9wZW5TU0wgR2VuZXJhdGVkIENlcnRpZmljYXRlMB0G
A1UdDgQWBBTZCsBX/UEfdHaEyv39sXH2WvBnujBgBgNVHSMEWTBXgBQJL6x+M79O
AIfrXz8BqKyB7j4ZJqE0pDIwMDELMAkGA1UEBhMCSU4xEjAQBgNVBAgTCUthcm5h
dGFrYTENMAsGA1UEChMEU2FoaYIJANaMeFzf9Z6jMA0GCSqGSIb3DQEBBQUAA4GB
AExD5QTViLYZnPMLQrtvKe6K7ZPs485Rq0tEUga3q/RCpk5Efsx7W5l250rqX+oY
Elu/iDMqKjkgMEi20F+yP2D2EJeFBnU2dkMumid51wJf5XEb5BIYQg0Fx6/5opcn
QDAXK74pwk41F8khZkPiT9CL3eq9RorQrrOXMoVpK2bz
-----END CERTIFICATE-----
