Certificate:
    Data:
        Version: 3 (0x2)
        Serial Number: 30 (0x1e)
        Signature Algorithm: sha1WithRSAEncryption
        Issuer: C=IN, ST=Karnataka, O=Sahi
        Validity
            Not Before: Apr  9 09:43:12 2015 GMT
            Not After : Apr  6 09:43:12 2025 GMT
        Subject: C=IN, ST=Karnataka, O=Sahi, OU=Sahi, CN=www.googleapis.com
        Subject Public Key Info:
            Public Key Algorithm: rsaEncryption
            RSA Public Key: (2048 bit)
                Modulus (2048 bit):
                    00:e4:8c:a0:c9:76:5e:b6:52:73:72:52:49:30:a5:
                    f4:f8:a0:38:39:68:84:29:b4:6b:e7:90:7f:8c:f1:
                    65:a8:0b:09:2e:3c:38:36:47:67:a5:81:47:76:07:
                    89:a4:af:b4:6c:11:3a:5d:c9:9a:fc:58:e5:72:dd:
                    06:4c:2d:fd:dc:fb:f1:c9:e2:ef:cb:94:59:2a:dc:
                    64:db:e8:bc:58:d2:04:c4:33:46:1a:fc:8a:07:5e:
                    c8:60:34:2b:b7:0e:74:9b:f8:5d:4c:49:f0:d9:87:
                    70:ed:74:b0:bf:10:c2:b5:21:d3:e7:3e:1f:ea:f2:
                    c5:fa:98:d2:fc:b0:71:df:ef:b0:f4:3f:38:48:d6:
                    a4:7b:ad:05:2a:08:a9:ac:f4:8a:c0:a5:30:49:d7:
                    2b:fc:82:6a:76:2a:c0:80:1c:35:52:f1:46:bb:d8:
                    f8:a3:34:71:65:6f:95:ec:e8:e1:3e:a8:49:01:32:
                    dd:4d:0a:76:dc:e0:da:e7:ea:23:db:7f:25:2b:ee:
                    ae:ff:8c:41:92:25:9e:7e:72:f6:b1:f7:2f:ef:c9:
                    10:12:d2:bb:8a:79:5d:66:e6:86:3b:59:ed:e8:3d:
                    15:8a:91:69:7e:ff:91:a0:08:ee:6a:38:c4:92:ed:
                    34:d3:01:56:e1:2c:2a:d5:87:e8:c1:a9:83:7f:1f:
                    03:99
                Exponent: 65537 (0x10001)
        X509v3 extensions:
            X509v3 Basic Constraints: 
                CA:FALSE
            Netscape Comment: 
                OpenSSL Generated Certificate
            X509v3 Subject Key Identifier: 
                DD:D9:72:71:17:49:C5:86:8B:EA:D1:BF:5F:C9:90:D9:40:6F:C4:44
            X509v3 Authority Key Identifier: 
                keyid:09:2F:AC:7E:33:BF:4E:00:87:EB:5F:3F:01:A8:AC:81:EE:3E:19:26
                DirName:/C=IN/ST=Karnataka/O=Sahi
                serial:D6:8C:78:5C:DF:F5:9E:A3

    Signature Algorithm: sha1WithRSAEncryption
        70:f0:2d:13:75:02:f2:c5:18:4f:51:e9:22:d6:2b:6e:1c:a0:
        76:dd:b4:a4:e3:b3:00:d2:6b:11:2c:fd:5c:79:04:3b:ad:73:
        e5:19:0a:c8:c6:df:ac:10:35:df:ee:ec:68:30:53:7a:26:98:
        04:fe:9f:05:a6:67:3a:d2:de:39:c1:82:bc:76:20:08:f2:eb:
        f2:f5:f0:ba:b5:6a:d2:69:00:07:9e:f2:00:31:21:77:62:44:
        64:ec:42:53:1c:fe:74:45:53:2d:fc:8c:41:10:cb:16:46:e8:
        59:89:f9:c6:6d:e8:ad:57:0b:f8:76:1e:48:95:0f:ec:a6:a6:
        3e:c1
-----BEGIN CERTIFICATE-----
MIIDRDCCAq2gAwIBAgIBHjANBgkqhkiG9w0BAQUFADAwMQswCQYDVQQGEwJJTjES
MBAGA1UECBMJS2FybmF0YWthMQ0wCwYDVQQKEwRTYWhpMB4XDTE1MDQwOTA5NDMx
MloXDTI1MDQwNjA5NDMxMlowXDELMAkGA1UEBhMCSU4xEjAQBgNVBAgTCUthcm5h
dGFrYTENMAsGA1UEChMEU2FoaTENMAsGA1UECxMEU2FoaTEbMBkGA1UEAxMSd3d3
Lmdvb2dsZWFwaXMuY29tMIIBIjANBgkqhkiG9w0BAQEFAAOCAQ8AMIIBCgKCAQEA
5IygyXZetlJzclJJMKX0+KA4OWiEKbRr55B/jPFlqAsJLjw4NkdnpYFHdgeJpK+0
bBE6Xcma/Fjlct0GTC393PvxyeLvy5RZKtxk2+i8WNIExDNGGvyKB17IYDQrtw50
m/hdTEnw2Ydw7XSwvxDCtSHT5z4f6vLF+pjS/LBx3++w9D84SNake60FKgiprPSK
wKUwSdcr/IJqdirAgBw1UvFGu9j4ozRxZW+V7OjhPqhJATLdTQp23ODa5+oj238l
K+6u/4xBkiWefnL2sfcv78kQEtK7inldZuaGO1nt6D0VipFpfv+RoAjuajjEku00
0wFW4Swq1YfowamDfx8DmQIDAQABo4G9MIG6MAkGA1UdEwQCMAAwLAYJYIZIAYb4
QgENBB8WHU9wZW5TU0wgR2VuZXJhdGVkIENlcnRpZmljYXRlMB0GA1UdDgQWBBTd
2XJxF0nFhovq0b9fyZDZQG/ERDBgBgNVHSMEWTBXgBQJL6x+M79OAIfrXz8BqKyB
7j4ZJqE0pDIwMDELMAkGA1UEBhMCSU4xEjAQBgNVBAgTCUthcm5hdGFrYTENMAsG
A1UEChMEU2FoaYIJANaMeFzf9Z6jMA0GCSqGSIb3DQEBBQUAA4GBAHDwLRN1AvLF
GE9R6SLWK24coHbdtKTjswDSaxEs/Vx5BDutc+UZCsjG36wQNd/u7GgwU3ommAT+
nwWmZzrS3jnBgrx2IAjy6/L18Lq1atJpAAee8gAxIXdiRGTsQlMc/nRFUy38jEEQ
yxZG6FmJ+cZt6K1XC/h2HkiVD+ympj7B
-----END CERTIFICATE-----
