Certificate:
    Data:
        Version: 3 (0x2)
        Serial Number: 31 (0x1f)
        Signature Algorithm: sha1WithRSAEncryption
        Issuer: C=IN, ST=Karnataka, O=Sahi
        Validity
            Not Before: Apr  9 09:43:15 2015 GMT
            Not After : Apr  6 09:43:15 2025 GMT
        Subject: C=IN, ST=Karnataka, O=Sahi, OU=Sahi, CN=cm.g.doubleclick.net
        Subject Public Key Info:
            Public Key Algorithm: rsaEncryption
            RSA Public Key: (2048 bit)
                Modulus (2048 bit):
                    00:c0:76:25:ac:1a:a3:61:21:da:e5:89:b2:22:78:
                    a2:41:25:c2:00:74:87:28:8f:ea:60:96:92:0e:38:
                    aa:fc:20:77:86:32:87:31:66:b9:58:91:2b:e4:7f:
                    61:35:7d:d6:64:c2:40:b2:f0:4a:82:5a:2e:09:1b:
                    79:58:95:e8:e2:70:0d:13:35:fa:ed:23:79:cc:9c:
                    4c:a4:b7:11:50:91:58:65:5d:14:f3:09:d8:f4:d6:
                    ec:ac:e4:8a:f6:c2:9c:f5:5a:02:08:e6:31:d8:71:
                    10:12:03:b1:28:18:9f:cd:6b:3a:f3:a5:ad:65:2b:
                    73:2b:20:f3:2e:68:4a:ef:7f:05:ce:ac:5d:15:b5:
                    4b:3f:33:a3:bf:95:03:03:1b:10:a6:6a:07:c1:7a:
                    e6:d8:df:b3:04:99:2b:7a:13:36:2b:df:e3:96:13:
                    3a:58:a1:e7:45:a3:39:d4:56:32:a9:a4:3f:2b:66:
                    24:1f:9c:e2:12:1d:f4:a0:40:71:83:ac:1c:b3:7f:
                    6e:22:dd:3b:f9:76:37:67:98:05:c3:57:3a:76:ef:
                    7d:8a:fc:e4:8f:6e:7c:d9:a2:61:fb:05:02:7b:ec:
                    55:b4:cc:98:70:41:4a:02:55:26:73:42:e9:fc:b6:
                    5c:74:d5:33:c3:1a:c4:9f:47:77:a1:bc:9c:bb:cb:
                    26:55
                Exponent: 65537 (0x10001)
        X509v3 extensions:
            X509v3 Basic Constraints: 
                CA:FALSE
            Netscape Comment: 
                OpenSSL Generated Certificate
            X509v3 Subject Key Identifier: 
                96:17:41:88:45:55:9E:39:A3:C7:F8:B2:FB:4F:F5:62:16:1B:A0:31
            X509v3 Authority Key Identifier: 
                keyid:09:2F:AC:7E:33:BF:4E:00:87:EB:5F:3F:01:A8:AC:81:EE:3E:19:26
                DirName:/C=IN/ST=Karnataka/O=Sahi
                serial:D6:8C:78:5C:DF:F5:9E:A3

    Signature Algorithm: sha1WithRSAEncryption
        68:2e:1f:08:fb:9d:18:c6:bb:8a:6d:a4:29:5e:1f:97:11:79:
        3a:c4:80:e5:30:c8:8f:2b:3b:6e:fe:97:a1:bb:b5:08:49:66:
        84:54:4b:10:d0:50:bf:b9:51:51:94:7a:80:9f:b5:cf:56:43:
        6b:f1:23:c3:ca:3d:b8:f7:c8:1f:fc:a8:49:22:7b:2a:2d:ab:
        b1:c6:95:04:47:20:41:a3:6e:ff:21:f3:a9:4f:c2:3b:04:86:
        65:fc:35:84:de:f4:7f:67:ec:a2:17:86:29:18:71:04:6f:9f:
        29:ca:5b:3c:77:4c:da:ab:9c:00:56:00:31:27:cb:6f:31:20:
        0f:4e
-----BEGIN CERTIFICATE-----
MIIDRjCCAq+gAwIBAgIBHzANBgkqhkiG9w0BAQUFADAwMQswCQYDVQQGEwJJTjES
MBAGA1UECBMJS2FybmF0YWthMQ0wCwYDVQQKEwRTYWhpMB4XDTE1MDQwOTA5NDMx
NVoXDTI1MDQwNjA5NDMxNVowXjELMAkGA1UEBhMCSU4xEjAQBgNVBAgTCUthcm5h
dGFrYTENMAsGA1UEChMEU2FoaTENMAsGA1UECxMEU2FoaTEdMBsGA1UEAxMUY20u
Zy5kb3VibGVjbGljay5uZXQwggEiMA0GCSqGSIb3DQEBAQUAA4IBDwAwggEKAoIB
AQDAdiWsGqNhIdrlibIieKJBJcIAdIcoj+pglpIOOKr8IHeGMocxZrlYkSvkf2E1
fdZkwkCy8EqCWi4JG3lYlejicA0TNfrtI3nMnEyktxFQkVhlXRTzCdj01uys5Ir2
wpz1WgII5jHYcRASA7EoGJ/Nazrzpa1lK3MrIPMuaErvfwXOrF0VtUs/M6O/lQMD
GxCmagfBeubY37MEmSt6EzYr3+OWEzpYoedFoznUVjKppD8rZiQfnOISHfSgQHGD
rByzf24i3Tv5djdnmAXDVzp2732K/OSPbnzZomH7BQJ77FW0zJhwQUoCVSZzQun8
tlx01TPDGsSfR3ehvJy7yyZVAgMBAAGjgb0wgbowCQYDVR0TBAIwADAsBglghkgB
hvhCAQ0EHxYdT3BlblNTTCBHZW5lcmF0ZWQgQ2VydGlmaWNhdGUwHQYDVR0OBBYE
FJYXQYhFVZ45o8f4svtP9WIWG6AxMGAGA1UdIwRZMFeAFAkvrH4zv04Ah+tfPwGo
rIHuPhkmoTSkMjAwMQswCQYDVQQGEwJJTjESMBAGA1UECBMJS2FybmF0YWthMQ0w
CwYDVQQKEwRTYWhpggkA1ox4XN/1nqMwDQYJKoZIhvcNAQEFBQADgYEAaC4fCPud
GMa7im2kKV4flxF5OsSA5TDIjys7bv6Xobu1CElmhFRLENBQv7lRUZR6gJ+1z1ZD
a/Ejw8o9uPfIH/yoSSJ7Ki2rscaVBEcgQaNu/yHzqU/COwSGZfw1hN70f2fsoheG
KRhxBG+fKcpbPHdM2qucAFYAMSfLbzEgD04=
-----END CERTIFICATE-----
