Certificate:
    Data:
        Version: 3 (0x2)
        Serial Number: 32 (0x20)
        Signature Algorithm: sha1WithRSAEncryption
        Issuer: C=IN, ST=Karnataka, O=Sahi
        Validity
            Not Before: Apr  9 10:28:04 2015 GMT
            Not After : Apr  6 10:28:04 2025 GMT
        Subject: C=IN, ST=Karnataka, O=Sahi, OU=Sahi, CN=sahipro.com
        Subject Public Key Info:
            Public Key Algorithm: rsaEncryption
            RSA Public Key: (2048 bit)
                Modulus (2048 bit):
                    00:81:03:c5:05:f9:4e:93:3b:aa:2b:38:e8:49:17:
                    e8:64:13:f2:84:ad:ac:17:71:dc:92:72:05:70:71:
                    f0:d6:41:b5:1e:68:43:85:56:86:81:7b:4a:08:fd:
                    28:1a:cb:8e:ad:ab:eb:1a:c9:fb:69:58:7f:08:98:
                    84:41:6a:fd:67:f4:c6:b6:86:2e:51:91:93:ee:40:
                    df:ed:31:18:8a:0f:50:25:db:1a:a1:4c:7e:d9:c2:
                    a5:c8:f3:b1:07:0d:84:16:7d:9b:9d:cc:ff:18:df:
                    dd:ed:de:46:1a:de:cd:ae:1d:bd:44:bf:fc:fa:c7:
                    dc:7f:13:cb:e8:20:d3:31:e6:d9:53:b3:4d:2c:cd:
                    70:71:00:f5:40:bd:53:2d:9f:58:2d:5b:00:c7:42:
                    df:ac:91:ef:8b:f5:16:45:7d:2f:29:32:1f:a1:6e:
                    b3:2a:25:5c:c0:eb:6f:d8:98:bb:61:12:85:32:14:
                    4e:5c:f6:35:c8:a8:b5:f9:2b:04:96:27:fa:7b:f6:
                    a6:98:46:04:64:ad:41:53:28:30:e8:1c:2a:ea:8b:
                    75:d5:05:1d:be:cd:7c:7d:5d:22:34:2c:a3:ec:4a:
                    c0:59:d2:54:8b:89:60:3c:fb:05:53:9d:3b:9a:89:
                    26:87:ae:20:20:1f:bd:35:14:1e:70:5d:57:03:71:
                    22:63
                Exponent: 65537 (0x10001)
        X509v3 extensions:
            X509v3 Basic Constraints: 
                CA:FALSE
            Netscape Comment: 
                OpenSSL Generated Certificate
            X509v3 Subject Key Identifier: 
                B7:A5:B2:E4:72:1F:CB:5A:95:62:29:0F:D0:D9:F6:45:AF:60:39:9A
            X509v3 Authority Key Identifier: 
                keyid:09:2F:AC:7E:33:BF:4E:00:87:EB:5F:3F:01:A8:AC:81:EE:3E:19:26
                DirName:/C=IN/ST=Karnataka/O=Sahi
                serial:D6:8C:78:5C:DF:F5:9E:A3

    Signature Algorithm: sha1WithRSAEncryption
        14:a6:c7:23:e9:17:e1:20:92:45:e7:84:93:51:c5:ee:20:40:
        ee:be:e6:6d:02:3c:95:6a:d2:8e:34:7b:65:99:88:d4:94:9b:
        ac:37:8a:61:fa:27:9b:9b:3b:95:d6:f5:39:83:f5:34:3b:dc:
        5b:4a:f4:a8:95:0b:2b:80:21:ec:8e:7b:1b:27:d0:32:da:ed:
        70:a1:f3:9b:48:fe:46:ec:97:f7:8f:e0:78:40:f5:f2:42:44:
        f4:d7:00:aa:a2:8a:6c:b0:20:96:18:a0:a1:e9:82:fc:28:49:
        59:3d:2c:c8:71:59:fc:e2:71:d7:b6:72:1a:45:f8:ce:60:ad:
        8e:99
-----BEGIN CERTIFICATE-----
MIIDPTCCAqagAwIBAgIBIDANBgkqhkiG9w0BAQUFADAwMQswCQYDVQQGEwJJTjES
MBAGA1UECBMJS2FybmF0YWthMQ0wCwYDVQQKEwRTYWhpMB4XDTE1MDQwOTEwMjgw
NFoXDTI1MDQwNjEwMjgwNFowVTELMAkGA1UEBhMCSU4xEjAQBgNVBAgTCUthcm5h
dGFrYTENMAsGA1UEChMEU2FoaTENMAsGA1UECxMEU2FoaTEUMBIGA1UEAxMLc2Fo
aXByby5jb20wggEiMA0GCSqGSIb3DQEBAQUAA4IBDwAwggEKAoIBAQCBA8UF+U6T
O6orOOhJF+hkE/KErawXcdyScgVwcfDWQbUeaEOFVoaBe0oI/Sgay46tq+sayftp
WH8ImIRBav1n9Ma2hi5RkZPuQN/tMRiKD1Al2xqhTH7ZwqXI87EHDYQWfZudzP8Y
393t3kYa3s2uHb1Ev/z6x9x/E8voINMx5tlTs00szXBxAPVAvVMtn1gtWwDHQt+s
ke+L9RZFfS8pMh+hbrMqJVzA62/YmLthEoUyFE5c9jXIqLX5KwSWJ/p79qaYRgRk
rUFTKDDoHCrqi3XVBR2+zXx9XSI0LKPsSsBZ0lSLiWA8+wVTnTuaiSaHriAgH701
FB5wXVcDcSJjAgMBAAGjgb0wgbowCQYDVR0TBAIwADAsBglghkgBhvhCAQ0EHxYd
T3BlblNTTCBHZW5lcmF0ZWQgQ2VydGlmaWNhdGUwHQYDVR0OBBYEFLelsuRyH8ta
lWIpD9DZ9kWvYDmaMGAGA1UdIwRZMFeAFAkvrH4zv04Ah+tfPwGorIHuPhkmoTSk
MjAwMQswCQYDVQQGEwJJTjESMBAGA1UECBMJS2FybmF0YWthMQ0wCwYDVQQKEwRT
YWhpggkA1ox4XN/1nqMwDQYJKoZIhvcNAQEFBQADgYEAFKbHI+kX4SCSReeEk1HF
7iBA7r7mbQI8lWrSjjR7ZZmI1JSbrDeKYfonm5s7ldb1OYP1NDvcW0r0qJULK4Ah
7I57GyfQMtrtcKHzm0j+RuyX94/geED18kJE9NcAqqKKbLAglhigoemC/ChJWT0s
yHFZ/OJx17ZyGkX4zmCtjpk=
-----END CERTIFICATE-----
