Certificate:
    Data:
        Version: 3 (0x2)
        Serial Number: 33 (0x21)
        Signature Algorithm: sha1WithRSAEncryption
        Issuer: C=IN, ST=Karnataka, O=Sahi
        Validity
            Not Before: Apr  9 10:48:39 2015 GMT
            Not After : Apr  6 10:48:39 2025 GMT
        Subject: C=IN, ST=Karnataka, O=Sahi, OU=Sahi, CN=github.com
        Subject Public Key Info:
            Public Key Algorithm: rsaEncryption
            RSA Public Key: (2048 bit)
                Modulus (2048 bit):
                    00:b2:86:78:43:e3:b0:e4:6a:4b:4f:c5:6d:f5:37:
                    77:26:42:3c:48:78:f7:96:75:bb:ae:db:db:fe:f2:
                    c1:7e:3c:6d:21:a7:b0:e6:3a:8d:eb:f5:c3:41:10:
                    bd:82:af:93:cb:75:46:09:72:f9:0b:6e:bf:ca:cb:
                    00:07:b5:bb:e3:ea:0e:ad:19:d5:13:82:f9:06:2a:
                    16:89:d8:d1:c3:59:a6:32:4a:4f:14:06:3c:20:2b:
                    a4:d7:90:33:77:3a:62:f6:15:f5:1a:2a:c4:29:a0:
                    c7:d1:fe:88:63:57:e5:9e:56:92:1e:b2:a9:82:cf:
                    3e:60:aa:30:cb:f2:23:7a:39:20:10:a7:27:48:cc:
                    30:e5:20:34:b3:26:40:fe:e2:29:2a:51:d3:e8:9a:
                    16:49:96:68:c9:58:df:21:68:33:32:92:20:e8:5e:
                    db:23:ee:c4:30:3f:81:c8:f7:5e:d5:99:d2:12:b9:
                    9a:15:99:95:5b:78:50:5f:94:48:43:48:52:1b:ee:
                    57:c9:cc:f6:02:36:5c:f3:a8:19:ae:72:ac:08:9e:
                    db:79:a8:e8:f6:b9:a5:1c:7b:06:76:8c:3c:85:b6:
                    78:2f:6e:d7:c3:c3:0b:87:69:eb:c4:25:e6:01:0d:
                    86:4f:e2:fb:77:86:95:da:3d:02:a4:71:0a:80:47:
                    1a:e9
                Exponent: 65537 (0x10001)
        X509v3 extensions:
            X509v3 Basic Constraints: 
                CA:FALSE
            Netscape Comment: 
                OpenSSL Generated Certificate
            X509v3 Subject Key Identifier: 
                89:E7:E0:EA:52:89:F9:9F:C2:3B:9D:0D:38:E4:3C:94:86:5D:C5:6C
            X509v3 Authority Key Identifier: 
                keyid:09:2F:AC:7E:33:BF:4E:00:87:EB:5F:3F:01:A8:AC:81:EE:3E:19:26
                DirName:/C=IN/ST=Karnataka/O=Sahi
                serial:D6:8C:78:5C:DF:F5:9E:A3

    Signature Algorithm: sha1WithRSAEncryption
        de:95:dc:34:dc:0f:9d:04:0f:66:ea:0f:cc:ee:35:14:14:d7:
        5a:61:3d:14:a5:ec:7c:b4:c7:41:53:65:bd:d6:da:8e:32:fa:
        af:43:1d:c2:c2:b2:74:b1:ee:d9:cb:0f:da:51:14:47:91:f6:
        dd:c5:28:83:c1:c5:47:00:63:34:f0:78:9d:ff:9c:b7:da:c4:
        71:21:88:a9:e9:6b:2f:7a:09:45:44:56:42:ed:eb:61:f5:6b:
        9b:80:36:fe:84:61:d7:e0:25:4f:2a:07:b6:b5:c9:c7:43:f2:
        1a:a6:a3:0d:eb:be:e7:5e:52:03:4c:86:d2:a9:4f:6d:99:e0:
        13:3a
-----BEGIN CERTIFICATE-----
MIIDPDCCAqWgAwIBAgIBITANBgkqhkiG9w0BAQUFADAwMQswCQYDVQQGEwJJTjES
MBAGA1UECBMJS2FybmF0YWthMQ0wCwYDVQQKEwRTYWhpMB4XDTE1MDQwOTEwNDgz
OVoXDTI1MDQwNjEwNDgzOVowVDELMAkGA1UEBhMCSU4xEjAQBgNVBAgTCUthcm5h
dGFrYTENMAsGA1UEChMEU2FoaTENMAsGA1UECxMEU2FoaTETMBEGA1UEAxMKZ2l0
aHViLmNvbTCCASIwDQYJKoZIhvcNAQEBBQADggEPADCCAQoCggEBALKGeEPjsORq
S0/FbfU3dyZCPEh495Z1u67b2/7ywX48bSGnsOY6jev1w0EQvYKvk8t1Rgly+Qtu
v8rLAAe1u+PqDq0Z1ROC+QYqFonY0cNZpjJKTxQGPCArpNeQM3c6YvYV9RoqxCmg
x9H+iGNX5Z5Wkh6yqYLPPmCqMMvyI3o5IBCnJ0jMMOUgNLMmQP7iKSpR0+iaFkmW
aMlY3yFoMzKSIOhe2yPuxDA/gcj3XtWZ0hK5mhWZlVt4UF+USENIUhvuV8nM9gI2
XPOoGa5yrAie23mo6Pa5pRx7BnaMPIW2eC9u18PDC4dp68Ql5gENhk/i+3eGldo9
AqRxCoBHGukCAwEAAaOBvTCBujAJBgNVHRMEAjAAMCwGCWCGSAGG+EIBDQQfFh1P
cGVuU1NMIEdlbmVyYXRlZCBDZXJ0aWZpY2F0ZTAdBgNVHQ4EFgQUiefg6lKJ+Z/C
O50NOOQ8lIZdxWwwYAYDVR0jBFkwV4AUCS+sfjO/TgCH618/Aaisge4+GSahNKQy
MDAxCzAJBgNVBAYTAklOMRIwEAYDVQQIEwlLYXJuYXRha2ExDTALBgNVBAoTBFNh
aGmCCQDWjHhc3/WeozANBgkqhkiG9w0BAQUFAAOBgQDeldw03A+dBA9m6g/M7jUU
FNdaYT0Upex8tMdBU2W91tqOMvqvQx3CwrJ0se7Zyw/aURRHkfbdxSiDwcVHAGM0
8Hid/5y32sRxIYip6WsveglFRFZC7eth9WubgDb+hGHX4CVPKge2tcnHQ/IapqMN
677nXlIDTIbSqU9tmeATOg==
-----END CERTIFICATE-----
