Certificate:
    Data:
        Version: 3 (0x2)
        Serial Number: 34 (0x22)
        Signature Algorithm: sha1WithRSAEncryption
        Issuer: C=IN, ST=Karnataka, O=Sahi
        Validity
            Not Before: Apr  9 10:48:46 2015 GMT
            Not After : Apr  6 10:48:46 2025 GMT
        Subject: C=IN, ST=Karnataka, O=Sahi, OU=Sahi, CN=assets-cdn.github.com
        Subject Public Key Info:
            Public Key Algorithm: rsaEncryption
            RSA Public Key: (2048 bit)
                Modulus (2048 bit):
                    00:e4:89:e1:3c:9e:7b:2d:b6:e9:12:4d:ca:bd:d5:
                    8a:8a:36:9e:50:17:89:ef:8b:6d:ed:9f:3b:19:2b:
                    b3:72:84:d7:ac:dc:87:03:aa:16:77:d2:e6:db:a4:
                    b0:c7:c7:42:05:37:11:93:d8:fd:f8:a2:00:28:28:
                    b5:1f:c7:82:27:3a:09:cb:76:99:e3:8e:64:fd:62:
                    e0:c9:75:80:4d:45:ce:dd:6a:a0:c8:cf:6c:32:2d:
                    67:d3:f2:2e:9a:93:0a:b7:36:13:15:87:fb:c0:93:
                    f3:99:18:e5:8c:55:92:a4:b5:4e:7f:ac:e8:5f:f3:
                    9f:e6:30:f7:89:d3:9e:34:76:5c:de:85:28:68:f1:
                    f2:04:f3:fe:67:75:ff:37:2a:c6:e6:3a:9a:eb:49:
                    c2:f3:ed:ff:50:ec:e5:83:aa:4e:f2:2b:c2:50:d3:
                    1a:17:c1:21:e1:97:d7:db:9a:3d:76:74:5f:c9:52:
                    c4:a8:e5:9f:35:9b:1a:b2:0f:55:dc:03:32:8a:b5:
                    11:a0:e8:57:a6:e7:3c:89:3f:4e:96:b6:cf:ed:43:
                    75:b3:14:c4:88:e0:8a:cb:ce:e7:a7:0d:0c:4a:5b:
                    a2:24:ad:d1:d4:7b:06:24:94:60:3e:f2:0d:75:a8:
                    5b:80:0f:4a:8a:18:6e:ec:eb:dc:7d:c6:28:cd:39:
                    45:81
                Exponent: 65537 (0x10001)
        X509v3 extensions:
            X509v3 Basic Constraints: 
                CA:FALSE
            Netscape Comment: 
                OpenSSL Generated Certificate
            X509v3 Subject Key Identifier: 
                F9:B0:32:83:E0:09:E6:E2:19:97:54:48:C3:68:18:3B:8E:75:46:F6
            X509v3 Authority Key Identifier: 
                keyid:09:2F:AC:7E:33:BF:4E:00:87:EB:5F:3F:01:A8:AC:81:EE:3E:19:26
                DirName:/C=IN/ST=Karnataka/O=Sahi
                serial:D6:8C:78:5C:DF:F5:9E:A3

    Signature Algorithm: sha1WithRSAEncryption
        8e:96:c1:e5:c3:bc:e5:75:34:db:28:48:95:04:16:e4:66:c0:
        35:6b:57:e0:22:94:03:92:f0:a5:41:ac:64:f5:2b:28:c5:ce:
        2a:10:dc:01:d9:b6:dc:c0:2f:96:90:7b:bb:6b:92:a7:08:4e:
        97:ea:4e:39:01:74:d5:53:d8:6d:b3:93:9f:ca:e6:61:cf:08:
        fd:86:c1:91:ee:56:09:8c:31:3f:e2:23:8d:1b:db:c1:06:b1:
        1b:e7:85:78:7f:cc:57:3e:d2:fa:dd:1b:ae:ce:88:51:53:8d:
        e9:68:d4:dd:19:ba:aa:84:c7:92:1b:80:ed:fa:3c:87:77:e4:
        a5:32
-----BEGIN CERTIFICATE-----
MIIDRzCCArCgAwIBAgIBIjANBgkqhkiG9w0BAQUFADAwMQswCQYDVQQGEwJJTjES
MBAGA1UECBMJS2FybmF0YWthMQ0wCwYDVQQKEwRTYWhpMB4XDTE1MDQwOTEwNDg0
NloXDTI1MDQwNjEwNDg0NlowXzELMAkGA1UEBhMCSU4xEjAQBgNVBAgTCUthcm5h
dGFrYTENMAsGA1UEChMEU2FoaTENMAsGA1UECxMEU2FoaTEeMBwGA1UEAxMVYXNz
ZXRzLWNkbi5naXRodWIuY29tMIIBIjANBgkqhkiG9w0BAQEFAAOCAQ8AMIIBCgKC
AQEA5InhPJ57LbbpEk3KvdWKijaeUBeJ74tt7Z87GSuzcoTXrNyHA6oWd9Lm26Sw
x8dCBTcRk9j9+KIAKCi1H8eCJzoJy3aZ445k/WLgyXWATUXO3WqgyM9sMi1n0/Iu
mpMKtzYTFYf7wJPzmRjljFWSpLVOf6zoX/Of5jD3idOeNHZc3oUoaPHyBPP+Z3X/
NyrG5jqa60nC8+3/UOzlg6pO8ivCUNMaF8Eh4ZfX25o9dnRfyVLEqOWfNZsasg9V
3AMyirURoOhXpuc8iT9OlrbP7UN1sxTEiOCKy87npw0MSluiJK3R1HsGJJRgPvIN
dahbgA9Kihhu7OvcfcYozTlFgQIDAQABo4G9MIG6MAkGA1UdEwQCMAAwLAYJYIZI
AYb4QgENBB8WHU9wZW5TU0wgR2VuZXJhdGVkIENlcnRpZmljYXRlMB0GA1UdDgQW
BBT5sDKD4Anm4hmXVEjDaBg7jnVG9jBgBgNVHSMEWTBXgBQJL6x+M79OAIfrXz8B
qKyB7j4ZJqE0pDIwMDELMAkGA1UEBhMCSU4xEjAQBgNVBAgTCUthcm5hdGFrYTEN
MAsGA1UEChMEU2FoaYIJANaMeFzf9Z6jMA0GCSqGSIb3DQEBBQUAA4GBAI6WweXD
vOV1NNsoSJUEFuRmwDVrV+AilAOS8KVBrGT1KyjFzioQ3AHZttzAL5aQe7trkqcI
TpfqTjkBdNVT2G2zk5/K5mHPCP2GwZHuVgmMMT/iI40b28EGsRvnhXh/zFc+0vrd
G67OiFFTjelo1N0ZuqqEx5IbgO36PId35KUy
-----END CERTIFICATE-----
