Certificate:
    Data:
        Version: 3 (0x2)
        Serial Number: 35 (0x23)
        Signature Algorithm: sha1WithRSAEncryption
        Issuer: C=IN, ST=Karnataka, O=Sahi
        Validity
            Not Before: Apr  9 10:49:06 2015 GMT
            Not After : Apr  6 10:49:06 2025 GMT
        Subject: C=IN, ST=Karnataka, O=Sahi, OU=Sahi, CN=collector-cdn.github.com
        Subject Public Key Info:
            Public Key Algorithm: rsaEncryption
            RSA Public Key: (2048 bit)
                Modulus (2048 bit):
                    00:9d:42:38:85:5b:89:aa:9f:ea:a5:a6:73:00:35:
                    67:83:cc:f2:29:1a:a1:5c:8a:bd:61:62:7c:53:2f:
                    c4:cb:78:a6:08:b4:dd:5a:ee:4f:46:cb:b9:5a:e3:
                    e5:89:92:89:48:7c:0c:5c:4e:25:52:b4:4b:22:88:
                    81:9f:fa:df:b1:5e:ac:62:5e:09:e6:0f:49:a7:24:
                    a9:af:df:cd:e7:d6:c2:69:ce:82:d1:fa:54:a7:d2:
                    f9:3d:65:d3:d8:86:81:fe:e7:14:66:62:f9:12:01:
                    5d:7c:d9:3b:2d:43:23:d4:31:ab:6d:d9:49:be:04:
                    98:38:b2:55:12:17:6f:17:07:f5:37:55:03:4d:99:
                    bb:47:a1:01:a8:5d:df:bb:43:82:20:35:e8:7e:1f:
                    1c:d2:57:96:26:68:92:fb:69:6b:b4:6d:d0:35:51:
                    64:12:32:1d:bf:fa:fc:0a:1c:66:ad:e0:10:01:9f:
                    df:87:d0:c1:a0:e8:83:43:e3:92:e4:4a:8b:98:1e:
                    c8:ef:06:19:b3:e3:e9:5d:6a:11:50:0b:96:79:7e:
                    ea:55:9d:c3:b9:4e:dd:c6:e7:92:ef:07:8e:af:cb:
                    6f:bb:a9:2e:35:1d:9c:ec:b9:58:8f:e1:b4:13:cd:
                    ca:29:e9:fb:6b:58:f1:fe:94:26:1c:79:a2:05:91:
                    19:f1
                Exponent: 65537 (0x10001)
        X509v3 extensions:
            X509v3 Basic Constraints: 
                CA:FALSE
            Netscape Comment: 
                OpenSSL Generated Certificate
            X509v3 Subject Key Identifier: 
                A4:B4:4B:29:49:95:6A:4C:F6:E6:28:1E:20:40:96:2B:40:FD:2D:4A
            X509v3 Authority Key Identifier: 
                keyid:09:2F:AC:7E:33:BF:4E:00:87:EB:5F:3F:01:A8:AC:81:EE:3E:19:26
                DirName:/C=IN/ST=Karnataka/O=Sahi
                serial:D6:8C:78:5C:DF:F5:9E:A3

    Signature Algorithm: sha1WithRSAEncryption
        ce:df:2b:0f:73:76:53:86:84:cc:6b:59:59:1a:d0:3b:03:d7:
        ee:ce:25:28:81:4b:0d:d7:c8:57:8e:ea:76:2e:b0:a7:f6:2a:
        9b:6f:b5:44:77:ae:6c:85:14:53:7b:80:81:b1:55:a4:64:7e:
        a0:c1:4e:93:a3:ab:4c:f0:4d:86:41:2c:38:6f:89:41:41:15:
        57:3b:af:75:96:db:25:8d:67:23:78:5d:e9:cd:8e:cc:46:ab:
        61:43:24:47:cb:1b:06:7d:32:35:29:58:2a:d7:3f:95:72:11:
        4c:70:10:c9:51:07:f2:52:46:f0:05:90:e8:1d:f8:cc:90:ec:
        f8:59
-----BEGIN CERTIFICATE-----
MIIDSjCCArOgAwIBAgIBIzANBgkqhkiG9w0BAQUFADAwMQswCQYDVQQGEwJJTjES
MBAGA1UECBMJS2FybmF0YWthMQ0wCwYDVQQKEwRTYWhpMB4XDTE1MDQwOTEwNDkw
NloXDTI1MDQwNjEwNDkwNlowYjELMAkGA1UEBhMCSU4xEjAQBgNVBAgTCUthcm5h
dGFrYTENMAsGA1UEChMEU2FoaTENMAsGA1UECxMEU2FoaTEhMB8GA1UEAxMYY29s
bGVjdG9yLWNkbi5naXRodWIuY29tMIIBIjANBgkqhkiG9w0BAQEFAAOCAQ8AMIIB
CgKCAQEAnUI4hVuJqp/qpaZzADVng8zyKRqhXIq9YWJ8Uy/Ey3imCLTdWu5PRsu5
WuPliZKJSHwMXE4lUrRLIoiBn/rfsV6sYl4J5g9JpySpr9/N59bCac6C0fpUp9L5
PWXT2IaB/ucUZmL5EgFdfNk7LUMj1DGrbdlJvgSYOLJVEhdvFwf1N1UDTZm7R6EB
qF3fu0OCIDXofh8c0leWJmiS+2lrtG3QNVFkEjIdv/r8ChxmreAQAZ/fh9DBoOiD
Q+OS5EqLmB7I7wYZs+PpXWoRUAuWeX7qVZ3DuU7dxueS7weOr8tvu6kuNR2c7LlY
j+G0E83KKen7a1jx/pQmHHmiBZEZ8QIDAQABo4G9MIG6MAkGA1UdEwQCMAAwLAYJ
YIZIAYb4QgENBB8WHU9wZW5TU0wgR2VuZXJhdGVkIENlcnRpZmljYXRlMB0GA1Ud
DgQWBBSktEspSZVqTPbmKB4gQJYrQP0tSjBgBgNVHSMEWTBXgBQJL6x+M79OAIfr
Xz8BqKyB7j4ZJqE0pDIwMDELMAkGA1UEBhMCSU4xEjAQBgNVBAgTCUthcm5hdGFr
YTENMAsGA1UEChMEU2FoaYIJANaMeFzf9Z6jMA0GCSqGSIb3DQEBBQUAA4GBAM7f
Kw9zdlOGhMxrWVka0DsD1+7OJSiBSw3XyFeO6nYusKf2KptvtUR3rmyFFFN7gIGx
VaRkfqDBTpOjq0zwTYZBLDhviUFBFVc7r3WW2yWNZyN4XenNjsxGq2FDJEfLGwZ9
MjUpWCrXP5VyEUxwEMlRB/JSRvAFkOgd+MyQ7PhZ
-----END CERTIFICATE-----
