Certificate:
    Data:
        Version: 3 (0x2)
        Serial Number: 36 (0x24)
        Signature Algorithm: sha1WithRSAEncryption
        Issuer: C=IN, ST=Karnataka, O=Sahi
        Validity
            Not Before: Apr  9 10:49:10 2015 GMT
            Not After : Apr  6 10:49:10 2025 GMT
        Subject: C=IN, ST=Karnataka, O=Sahi, OU=Sahi, CN=1.gravatar.com
        Subject Public Key Info:
            Public Key Algorithm: rsaEncryption
            RSA Public Key: (2048 bit)
                Modulus (2048 bit):
                    00:c5:17:80:76:c9:c6:80:92:c5:f8:eb:d8:b6:4e:
                    1e:04:14:41:7e:d7:46:71:de:42:af:e8:1e:8e:1d:
                    a6:fa:7d:4d:8f:2d:67:b3:fa:db:a2:c0:d5:9d:75:
                    35:25:5c:1a:28:a7:b0:2b:3d:aa:0b:e9:d1:77:25:
                    0a:7d:53:41:73:9a:af:19:f5:6b:c5:da:39:14:eb:
                    72:e3:f6:27:0c:77:ff:e0:99:40:d4:c6:a7:00:b1:
                    b3:da:bd:d2:18:42:43:8b:9c:ef:5e:c5:d6:1d:f7:
                    02:1e:08:7d:67:7e:d3:33:f3:08:70:f1:90:bf:b9:
                    a8:c5:56:02:88:cb:95:86:d1:9f:4d:43:97:c0:00:
                    bd:46:ef:2a:c7:70:28:9a:33:f0:1c:cf:0e:7a:01:
                    d3:62:de:d0:e2:d9:d3:6a:84:fd:91:39:b6:2f:75:
                    59:8d:f5:5c:6b:09:41:58:c4:e1:4c:57:bf:3d:ae:
                    5b:e2:03:0b:b2:70:9c:62:cb:a0:d4:8c:5e:a7:53:
                    eb:6c:24:16:eb:f7:a0:3e:e4:c0:e1:df:a3:09:58:
                    de:5b:4a:c0:f6:9f:07:2f:87:16:ab:2c:99:fb:28:
                    78:31:a5:1f:84:bb:df:f6:1a:8a:1c:6b:ac:06:c4:
                    c1:bd:cb:5a:4d:5b:27:50:61:3b:a5:9c:51:95:20:
                    53:3b
                Exponent: 65537 (0x10001)
        X509v3 extensions:
            X509v3 Basic Constraints: 
                CA:FALSE
            Netscape Comment: 
                OpenSSL Generated Certificate
            X509v3 Subject Key Identifier: 
                C3:C7:0A:FC:1C:33:5B:D4:9B:85:04:9E:32:99:C5:57:98:9A:A5:5C
            X509v3 Authority Key Identifier: 
                keyid:09:2F:AC:7E:33:BF:4E:00:87:EB:5F:3F:01:A8:AC:81:EE:3E:19:26
                DirName:/C=IN/ST=Karnataka/O=Sahi
                serial:D6:8C:78:5C:DF:F5:9E:A3

    Signature Algorithm: sha1WithRSAEncryption
        9c:ac:36:ab:59:44:40:95:24:ed:9d:9c:9c:53:6e:62:e2:39:
        6c:f6:38:f5:6e:58:cf:83:73:a5:96:9e:3c:51:69:5c:0f:b6:
        b5:0d:ab:9b:89:7f:51:6d:02:48:58:bf:e1:3a:9b:b7:d9:28:
        1a:cf:24:6e:f6:c5:ce:1d:d2:bf:83:fe:26:a5:6d:6c:20:fb:
        ed:80:91:97:c9:65:ee:2d:ca:ce:82:50:e3:1d:55:c1:f8:d3:
        b7:7e:85:e5:59:27:ff:0b:41:38:30:b5:5f:74:5d:49:6d:b8:
        f4:4d:a1:c7:bb:50:64:68:72:19:ca:5b:c3:ee:bb:28:a8:98:
        89:5e
-----BEGIN CERTIFICATE-----
MIIDQDCCAqmgAwIBAgIBJDANBgkqhkiG9w0BAQUFADAwMQswCQYDVQQGEwJJTjES
MBAGA1UECBMJS2FybmF0YWthMQ0wCwYDVQQKEwRTYWhpMB4XDTE1MDQwOTEwNDkx
MFoXDTI1MDQwNjEwNDkxMFowWDELMAkGA1UEBhMCSU4xEjAQBgNVBAgTCUthcm5h
dGFrYTENMAsGA1UEChMEU2FoaTENMAsGA1UECxMEU2FoaTEXMBUGA1UEAxMOMS5n
cmF2YXRhci5jb20wggEiMA0GCSqGSIb3DQEBAQUAA4IBDwAwggEKAoIBAQDFF4B2
ycaAksX469i2Th4EFEF+10Zx3kKv6B6OHab6fU2PLWez+tuiwNWddTUlXBoop7Ar
PaoL6dF3JQp9U0Fzmq8Z9WvF2jkU63Lj9icMd//gmUDUxqcAsbPavdIYQkOLnO9e
xdYd9wIeCH1nftMz8whw8ZC/uajFVgKIy5WG0Z9NQ5fAAL1G7yrHcCiaM/Aczw56
AdNi3tDi2dNqhP2RObYvdVmN9VxrCUFYxOFMV789rlviAwuycJxiy6DUjF6nU+ts
JBbr96A+5MDh36MJWN5bSsD2nwcvhxarLJn7KHgxpR+Eu9/2Gooca6wGxMG9y1pN
WydQYTulnFGVIFM7AgMBAAGjgb0wgbowCQYDVR0TBAIwADAsBglghkgBhvhCAQ0E
HxYdT3BlblNTTCBHZW5lcmF0ZWQgQ2VydGlmaWNhdGUwHQYDVR0OBBYEFMPHCvwc
M1vUm4UEnjKZxVeYmqVcMGAGA1UdIwRZMFeAFAkvrH4zv04Ah+tfPwGorIHuPhkm
oTSkMjAwMQswCQYDVQQGEwJJTjESMBAGA1UECBMJS2FybmF0YWthMQ0wCwYDVQQK
EwRTYWhpggkA1ox4XN/1nqMwDQYJKoZIhvcNAQEFBQADgYEAnKw2q1lEQJUk7Z2c
nFNuYuI5bPY49W5Yz4NzpZaePFFpXA+2tQ2rm4l/UW0CSFi/4Tqbt9koGs8kbvbF
zh3Sv4P+JqVtbCD77YCRl8ll7i3KzoJQ4x1VwfjTt36F5Vkn/wtBODC1X3RdSW24
9E2hx7tQZGhyGcpbw+67KKiYiV4=
-----END CERTIFICATE-----
