Certificate:
    Data:
        Version: 3 (0x2)
        Serial Number: 37 (0x25)
        Signature Algorithm: sha1WithRSAEncryption
        Issuer: C=IN, ST=Karnataka, O=Sahi
        Validity
            Not Before: Apr  9 10:49:12 2015 GMT
            Not After : Apr  6 10:49:12 2025 GMT
        Subject: C=IN, ST=Karnataka, O=Sahi, OU=Sahi, CN=collector.githubapp.com
        Subject Public Key Info:
            Public Key Algorithm: rsaEncryption
            RSA Public Key: (2048 bit)
                Modulus (2048 bit):
                    00:88:50:66:2e:cf:9d:3d:51:c5:cc:e3:f9:98:6d:
                    71:75:cd:44:30:6f:fa:63:2c:76:f4:a2:0d:48:00:
                    48:92:05:09:0f:7a:09:69:d2:dc:14:57:e9:64:8c:
                    11:83:30:d4:ba:d3:45:0b:ac:d0:f6:0f:41:43:aa:
                    52:a3:f7:10:7c:3c:25:ee:07:02:37:91:27:19:1b:
                    8f:6f:25:b9:79:03:7f:97:16:86:20:e5:73:56:cd:
                    b8:7f:56:c2:c6:a7:6a:26:66:d8:f8:25:55:3b:95:
                    79:b3:57:08:4e:64:7e:7d:b3:19:7a:2a:37:5f:9f:
                    9f:b2:bb:32:c1:b6:64:da:3a:fb:fd:6f:5a:c8:d5:
                    8a:e2:89:d9:a2:f3:d6:42:d2:0c:3e:27:53:81:dc:
                    33:18:74:70:8c:f6:87:49:96:27:f0:d9:ee:99:74:
                    4d:6c:18:3a:bc:51:50:e5:e0:c2:36:64:e3:09:2e:
                    08:14:f9:c9:2a:8f:cf:46:08:11:f0:c0:9f:96:c0:
                    ea:f2:3c:a3:cc:58:42:70:3b:a7:cf:29:d1:54:1d:
                    d0:63:d1:92:15:95:6b:1d:fb:fc:a3:d1:98:4d:8e:
                    05:15:90:b5:ea:dc:23:35:d1:f6:88:ac:59:5c:db:
                    09:86:60:c7:3a:3c:28:d8:eb:ee:97:a8:f4:2d:90:
                    f8:2f
                Exponent: 65537 (0x10001)
        X509v3 extensions:
            X509v3 Basic Constraints: 
                CA:FALSE
            Netscape Comment: 
                OpenSSL Generated Certificate
            X509v3 Subject Key Identifier: 
                80:F3:F2:4E:A3:A6:55:CC:D8:C9:F0:1A:9B:DF:3F:F2:80:3B:E8:AE
            X509v3 Authority Key Identifier: 
                keyid:09:2F:AC:7E:33:BF:4E:00:87:EB:5F:3F:01:A8:AC:81:EE:3E:19:26
                DirName:/C=IN/ST=Karnataka/O=Sahi
                serial:D6:8C:78:5C:DF:F5:9E:A3

    Signature Algorithm: sha1WithRSAEncryption
        83:32:36:8b:81:dc:5e:90:e1:30:69:6f:28:5f:98:da:cf:25:
        c1:83:ea:2e:19:37:e9:02:96:ba:c9:3c:88:37:c4:e0:62:c0:
        68:f3:83:cf:0e:ec:c0:3f:9a:05:e3:68:09:2d:38:25:fe:16:
        a5:f0:21:29:09:df:82:21:76:8e:ca:20:7a:aa:74:2a:89:74:
        e9:02:75:76:f8:86:10:45:69:e5:8a:d4:0e:b9:db:6f:c5:10:
        d9:5c:69:80:df:34:a0:81:7d:94:14:4d:ee:0b:b6:62:e2:9c:
        f4:28:64:fb:6a:5c:28:63:75:54:b7:55:64:9b:05:bf:81:dd:
        2d:6f
-----BEGIN CERTIFICATE-----
MIIDSTCCArKgAwIBAgIBJTANBgkqhkiG9w0BAQUFADAwMQswCQYDVQQGEwJJTjES
MBAGA1UECBMJS2FybmF0YWthMQ0wCwYDVQQKEwRTYWhpMB4XDTE1MDQwOTEwNDkx
MloXDTI1MDQwNjEwNDkxMlowYTELMAkGA1UEBhMCSU4xEjAQBgNVBAgTCUthcm5h
dGFrYTENMAsGA1UEChMEU2FoaTENMAsGA1UECxMEU2FoaTEgMB4GA1UEAxMXY29s
bGVjdG9yLmdpdGh1YmFwcC5jb20wggEiMA0GCSqGSIb3DQEBAQUAA4IBDwAwggEK
AoIBAQCIUGYuz509UcXM4/mYbXF1zUQwb/pjLHb0og1IAEiSBQkPeglp0twUV+lk
jBGDMNS600ULrND2D0FDqlKj9xB8PCXuBwI3kScZG49vJbl5A3+XFoYg5XNWzbh/
VsLGp2omZtj4JVU7lXmzVwhOZH59sxl6Kjdfn5+yuzLBtmTaOvv9b1rI1Yriidmi
89ZC0gw+J1OB3DMYdHCM9odJlifw2e6ZdE1sGDq8UVDl4MI2ZOMJLggU+ckqj89G
CBHwwJ+WwOryPKPMWEJwO6fPKdFUHdBj0ZIVlWsd+/yj0ZhNjgUVkLXq3CM10faI
rFlc2wmGYMc6PCjY6+6XqPQtkPgvAgMBAAGjgb0wgbowCQYDVR0TBAIwADAsBglg
hkgBhvhCAQ0EHxYdT3BlblNTTCBHZW5lcmF0ZWQgQ2VydGlmaWNhdGUwHQYDVR0O
BBYEFIDz8k6jplXM2MnwGpvfP/KAO+iuMGAGA1UdIwRZMFeAFAkvrH4zv04Ah+tf
PwGorIHuPhkmoTSkMjAwMQswCQYDVQQGEwJJTjESMBAGA1UECBMJS2FybmF0YWth
MQ0wCwYDVQQKEwRTYWhpggkA1ox4XN/1nqMwDQYJKoZIhvcNAQEFBQADgYEAgzI2
i4HcXpDhMGlvKF+Y2s8lwYPqLhk36QKWusk8iDfE4GLAaPODzw7swD+aBeNoCS04
Jf4WpfAhKQnfgiF2jsogeqp0Kol06QJ1dviGEEVp5YrUDrnbb8UQ2VxpgN80oIF9
lBRN7gu2YuKc9Chk+2pcKGN1VLdVZJsFv4HdLW8=
-----END CERTIFICATE-----
