Certificate:
    Data:
        Version: 3 (0x2)
        Serial Number: 38 (0x26)
        Signature Algorithm: sha1WithRSAEncryption
        Issuer: C=IN, ST=Karnataka, O=Sahi
        Validity
            Not Before: Apr  9 10:49:16 2015 GMT
            Not After : Apr  6 10:49:16 2025 GMT
        Subject: C=IN, ST=Karnataka, O=Sahi, OU=Sahi, CN=i2.wp.com
        Subject Public Key Info:
            Public Key Algorithm: rsaEncryption
            RSA Public Key: (2048 bit)
                Modulus (2048 bit):
                    00:88:f5:d7:2e:87:18:d3:61:10:f1:95:1d:93:d2:
                    27:3d:71:a0:2a:98:3e:5f:52:91:9a:3f:74:8d:b3:
                    df:a7:0c:b2:f3:54:ec:ac:31:38:30:5e:60:3d:d1:
                    c1:63:34:02:dd:3a:47:9a:44:21:47:8d:3b:a7:1c:
                    c3:3b:59:0c:fa:58:af:fc:2d:c6:6f:42:8c:53:c7:
                    08:31:c6:aa:59:51:b7:02:aa:b3:0c:0c:92:37:21:
                    96:d2:62:65:d0:7f:7e:2e:5b:b2:91:4c:9e:c1:1d:
                    e5:7e:29:42:c4:05:af:ba:0e:49:78:83:b9:09:4a:
                    39:c1:00:f2:71:04:98:60:63:6a:65:73:4a:9d:4a:
                    ee:b9:59:65:74:7a:ba:a5:d0:aa:11:95:e6:bb:9f:
                    61:b4:2c:f2:5e:4e:2e:77:21:e5:4b:12:24:41:ba:
                    12:fc:c9:55:a2:a7:fe:bf:6d:f2:61:2f:a2:c8:38:
                    78:f2:b8:4a:15:82:72:6a:3b:2f:16:0f:d5:39:5a:
                    58:b1:b3:19:c4:d2:29:d5:a6:e1:e8:e5:c2:b9:0d:
                    4e:2c:de:d0:58:b7:43:a4:9b:78:a8:56:c4:f4:82:
                    9f:ac:11:45:dd:bb:86:55:f1:cc:0c:6a:a9:fb:a6:
                    dc:9d:65:b7:3a:77:76:2b:23:c8:02:2b:52:99:c6:
                    17:69
                Exponent: 65537 (0x10001)
        X509v3 extensions:
            X509v3 Basic Constraints: 
                CA:FALSE
            Netscape Comment: 
                OpenSSL Generated Certificate
            X509v3 Subject Key Identifier: 
                9C:42:FB:50:4E:BC:57:54:D4:9F:25:3C:F4:7B:FF:E6:B1:48:88:6D
            X509v3 Authority Key Identifier: 
                keyid:09:2F:AC:7E:33:BF:4E:00:87:EB:5F:3F:01:A8:AC:81:EE:3E:19:26
                DirName:/C=IN/ST=Karnataka/O=Sahi
                serial:D6:8C:78:5C:DF:F5:9E:A3

    Signature Algorithm: sha1WithRSAEncryption
        76:de:8b:5d:0b:8c:9b:70:db:72:01:48:0b:20:fb:46:e2:1f:
        2d:92:d3:68:7a:ec:d8:b8:8e:1f:fb:cd:2d:0e:bc:2c:38:e4:
        f4:cc:7b:b3:ed:ac:e5:9b:44:3b:c1:e2:1a:77:43:39:f7:14:
        1c:0f:e8:1a:65:37:fa:71:63:fd:e6:b5:d7:98:68:89:16:82:
        7e:eb:10:01:88:2f:27:32:97:e5:8c:8b:73:bf:d5:c2:4e:5f:
        72:96:aa:75:82:0d:ad:3f:bd:73:7d:7c:32:44:16:37:cb:9d:
        22:e0:a5:7e:fe:6b:b6:aa:91:27:d3:4a:eb:85:0d:fa:af:a3:
        6f:a1
-----BEGIN CERTIFICATE-----
MIIDOzCCAqSgAwIBAgIBJjANBgkqhkiG9w0BAQUFADAwMQswCQYDVQQGEwJJTjES
MBAGA1UECBMJS2FybmF0YWthMQ0wCwYDVQQKEwRTYWhpMB4XDTE1MDQwOTEwNDkx
NloXDTI1MDQwNjEwNDkxNlowUzELMAkGA1UEBhMCSU4xEjAQBgNVBAgTCUthcm5h
dGFrYTENMAsGA1UEChMEU2FoaTENMAsGA1UECxMEU2FoaTESMBAGA1UEAxMJaTIu
d3AuY29tMIIBIjANBgkqhkiG9w0BAQEFAAOCAQ8AMIIBCgKCAQEAiPXXLocY02EQ
8ZUdk9InPXGgKpg+X1KRmj90jbPfpwyy81TsrDE4MF5gPdHBYzQC3TpHmkQhR407
pxzDO1kM+liv/C3Gb0KMU8cIMcaqWVG3AqqzDAySNyGW0mJl0H9+LluykUyewR3l
filCxAWvug5JeIO5CUo5wQDycQSYYGNqZXNKnUruuVlldHq6pdCqEZXmu59htCzy
Xk4udyHlSxIkQboS/MlVoqf+v23yYS+iyDh48rhKFYJyajsvFg/VOVpYsbMZxNIp
1abh6OXCuQ1OLN7QWLdDpJt4qFbE9IKfrBFF3buGVfHMDGqp+6bcnWW3Ond2KyPI
AitSmcYXaQIDAQABo4G9MIG6MAkGA1UdEwQCMAAwLAYJYIZIAYb4QgENBB8WHU9w
ZW5TU0wgR2VuZXJhdGVkIENlcnRpZmljYXRlMB0GA1UdDgQWBBScQvtQTrxXVNSf
JTz0e//msUiIbTBgBgNVHSMEWTBXgBQJL6x+M79OAIfrXz8BqKyB7j4ZJqE0pDIw
MDELMAkGA1UEBhMCSU4xEjAQBgNVBAgTCUthcm5hdGFrYTENMAsGA1UEChMEU2Fo
aYIJANaMeFzf9Z6jMA0GCSqGSIb3DQEBBQUAA4GBAHbei10LjJtw23IBSAsg+0bi
Hy2S02h67Ni4jh/7zS0OvCw45PTMe7PtrOWbRDvB4hp3Qzn3FBwP6BplN/pxY/3m
tdeYaIkWgn7rEAGILycyl+WMi3O/1cJOX3KWqnWCDa0/vXN9fDJEFjfLnSLgpX7+
a7aqkSfTSuuFDfqvo2+h
-----END CERTIFICATE-----
