Certificate:
    Data:
        Version: 3 (0x2)
        Serial Number: 39 (0x27)
        Signature Algorithm: sha1WithRSAEncryption
        Issuer: C=IN, ST=Karnataka, O=Sahi
        Validity
            Not Before: Apr  9 10:49:24 2015 GMT
            Not After : Apr  6 10:49:24 2025 GMT
        Subject: C=IN, ST=Karnataka, O=Sahi, OU=Sahi, CN=api.github.com
        Subject Public Key Info:
            Public Key Algorithm: rsaEncryption
            RSA Public Key: (2048 bit)
                Modulus (2048 bit):
                    00:bd:fc:78:25:bd:d6:54:d2:29:d0:aa:92:c5:fa:
                    3f:2f:67:bc:b3:5a:0f:2b:18:01:e9:2f:0c:9a:19:
                    96:e0:3d:a7:d1:33:23:10:eb:0e:5b:73:fd:c7:84:
                    91:d5:71:55:71:39:52:f9:8e:8b:78:85:f6:2f:97:
                    b1:3b:94:3c:9d:0b:ea:fc:6b:23:15:8e:95:31:af:
                    58:43:95:52:d4:ce:f2:63:55:e3:4b:ef:a7:2b:03:
                    0b:45:65:79:94:9d:6f:06:e6:59:e7:bc:1a:b0:d3:
                    b6:ea:48:f7:49:91:f4:9e:23:03:98:68:93:2f:24:
                    cf:9a:cd:f7:be:cd:29:b7:97:ac:72:12:72:05:e7:
                    97:7c:d9:0c:fd:de:fe:86:54:8d:5c:bf:c7:b5:36:
                    07:5a:f8:d0:ee:f7:43:6c:66:0b:4e:23:a4:3a:d5:
                    05:4d:b9:0c:01:f4:bf:29:1c:58:d0:08:7c:24:22:
                    28:93:20:29:5f:af:be:61:34:1d:9f:7b:fa:a0:38:
                    73:89:bc:6f:fe:d6:fc:85:33:86:f1:e9:91:b7:9a:
                    a7:11:37:9d:f8:7c:06:f1:d7:36:bc:45:87:36:0d:
                    13:58:b6:21:65:14:ea:bb:72:79:2a:36:f0:9f:38:
                    e4:7f:9e:43:5c:6c:95:c0:33:d5:35:dc:91:61:64:
                    38:e5
                Exponent: 65537 (0x10001)
        X509v3 extensions:
            X509v3 Basic Constraints: 
                CA:FALSE
            Netscape Comment: 
                OpenSSL Generated Certificate
            X509v3 Subject Key Identifier: 
                D6:7A:D9:D2:37:D2:96:D8:55:C6:6D:DF:D0:AD:CD:21:C3:AB:E2:E8
            X509v3 Authority Key Identifier: 
                keyid:09:2F:AC:7E:33:BF:4E:00:87:EB:5F:3F:01:A8:AC:81:EE:3E:19:26
                DirName:/C=IN/ST=Karnataka/O=Sahi
                serial:D6:8C:78:5C:DF:F5:9E:A3

    Signature Algorithm: sha1WithRSAEncryption
        8d:2c:b4:b7:30:f3:0f:4e:35:b8:e6:84:bf:58:2d:81:0f:8a:
        e5:1c:e9:26:3a:d8:92:b4:0f:21:14:7e:70:b6:e6:e2:b4:e6:
        cf:6d:dd:3e:48:71:82:99:b1:eb:e1:11:40:02:e0:0c:34:30:
        44:b5:d3:2d:3b:41:65:17:d2:3d:7c:b2:56:53:dc:9f:9a:3b:
        63:49:57:f9:08:72:bf:c4:8f:f7:b9:88:57:7e:80:47:c0:4a:
        76:e9:05:a3:ca:9f:a0:84:43:16:ca:1c:47:ef:7d:b4:1c:fd:
        62:ec:2a:11:a3:18:3f:cb:94:8d:c2:eb:bd:40:88:e6:00:92:
        00:37
-----BEGIN CERTIFICATE-----
MIIDQDCCAqmgAwIBAgIBJzANBgkqhkiG9w0BAQUFADAwMQswCQYDVQQGEwJJTjES
MBAGA1UECBMJS2FybmF0YWthMQ0wCwYDVQQKEwRTYWhpMB4XDTE1MDQwOTEwNDky
NFoXDTI1MDQwNjEwNDkyNFowWDELMAkGA1UEBhMCSU4xEjAQBgNVBAgTCUthcm5h
dGFrYTENMAsGA1UEChMEU2FoaTENMAsGA1UECxMEU2FoaTEXMBUGA1UEAxMOYXBp
LmdpdGh1Yi5jb20wggEiMA0GCSqGSIb3DQEBAQUAA4IBDwAwggEKAoIBAQC9/Hgl
vdZU0inQqpLF+j8vZ7yzWg8rGAHpLwyaGZbgPafRMyMQ6w5bc/3HhJHVcVVxOVL5
jot4hfYvl7E7lDydC+r8ayMVjpUxr1hDlVLUzvJjVeNL76crAwtFZXmUnW8G5lnn
vBqw07bqSPdJkfSeIwOYaJMvJM+azfe+zSm3l6xyEnIF55d82Qz93v6GVI1cv8e1
Ngda+NDu90NsZgtOI6Q61QVNuQwB9L8pHFjQCHwkIiiTIClfr75hNB2fe/qgOHOJ
vG/+1vyFM4bx6ZG3mqcRN534fAbx1za8RYc2DRNYtiFlFOq7cnkqNvCfOOR/nkNc
bJXAM9U13JFhZDjlAgMBAAGjgb0wgbowCQYDVR0TBAIwADAsBglghkgBhvhCAQ0E
HxYdT3BlblNTTCBHZW5lcmF0ZWQgQ2VydGlmaWNhdGUwHQYDVR0OBBYEFNZ62dI3
0pbYVcZt39CtzSHDq+LoMGAGA1UdIwRZMFeAFAkvrH4zv04Ah+tfPwGorIHuPhkm
oTSkMjAwMQswCQYDVQQGEwJJTjESMBAGA1UECBMJS2FybmF0YWthMQ0wCwYDVQQK
EwRTYWhpggkA1ox4XN/1nqMwDQYJKoZIhvcNAQEFBQADgYEAjSy0tzDzD041uOaE
v1gtgQ+K5RzpJjrYkrQPIRR+cLbm4rTmz23dPkhxgpmx6+ERQALgDDQwRLXTLTtB
ZRfSPXyyVlPcn5o7Y0lX+Qhyv8SP97mIV36AR8BKdukFo8qfoIRDFsocR+99tBz9
YuwqEaMYP8uUjcLrvUCI5gCSADc=
-----END CERTIFICATE-----
