Certificate:
    Data:
        Version: 3 (0x2)
        Serial Number: 40 (0x28)
        Signature Algorithm: sha1WithRSAEncryption
        Issuer: C=IN, ST=Karnataka, O=Sahi
        Validity
            Not Before: Apr 10 04:22:59 2015 GMT
            Not After : Apr  7 04:22:59 2025 GMT
        Subject: C=IN, ST=Karnataka, O=Sahi, OU=Sahi, CN=accounts.google.com
        Subject Public Key Info:
            Public Key Algorithm: rsaEncryption
            RSA Public Key: (2048 bit)
                Modulus (2048 bit):
                    00:b8:24:99:a6:82:96:ca:e6:9d:82:21:1c:3e:31:
                    8b:ec:b3:0e:9e:12:e0:2b:98:3e:27:ef:c9:83:a8:
                    00:53:d9:ad:23:b5:b8:ad:4b:30:e5:78:e8:b1:6e:
                    4a:c5:51:86:23:76:fd:00:6c:31:2d:d8:fe:4c:96:
                    8f:75:c0:64:6e:b3:e9:76:84:4c:72:fa:30:8c:6a:
                    86:22:df:3a:98:47:92:08:d2:44:e7:a5:f2:47:8a:
                    6c:5f:ea:1b:33:ba:a7:f1:75:14:80:de:a2:a1:5b:
                    54:96:ac:9b:ac:b8:e4:68:17:d7:85:80:84:1d:d5:
                    8a:e7:61:59:fe:59:ad:c3:86:0e:19:be:b9:5d:8b:
                    02:be:a0:7a:1f:18:03:3e:00:a6:65:b9:cb:0b:56:
                    21:da:d4:2c:94:68:8a:f5:9d:8e:bc:48:a0:47:23:
                    4d:bb:f1:59:c6:e1:5a:11:7b:bb:c7:44:21:54:01:
                    8c:e7:41:ec:87:f0:c0:34:a4:f8:e3:60:3a:cc:4f:
                    91:74:23:c1:e5:1f:04:1f:ef:49:d9:99:92:2a:ad:
                    27:53:0b:78:f8:5d:b2:df:75:e5:ad:4e:a3:1f:5b:
                    7e:e4:7f:bd:37:ec:7a:a3:7e:11:48:ed:07:18:4c:
                    6c:59:03:4f:f4:6f:cb:d0:0a:b4:d8:d9:00:eb:8f:
                    5d:7d
                Exponent: 65537 (0x10001)
        X509v3 extensions:
            X509v3 Basic Constraints: 
                CA:FALSE
            Netscape Comment: 
                OpenSSL Generated Certificate
            X509v3 Subject Key Identifier: 
                BC:92:14:DC:D7:34:5F:42:72:8E:32:0C:2F:E2:98:1B:C2:7A:D8:E6
            X509v3 Authority Key Identifier: 
                keyid:09:2F:AC:7E:33:BF:4E:00:87:EB:5F:3F:01:A8:AC:81:EE:3E:19:26
                DirName:/C=IN/ST=Karnataka/O=Sahi
                serial:D6:8C:78:5C:DF:F5:9E:A3

    Signature Algorithm: sha1WithRSAEncryption
        36:69:a1:69:66:ad:28:62:e9:44:ba:79:e1:2b:88:95:89:8a:
        f4:fe:81:ce:3b:c0:a8:2e:31:13:81:7e:f7:b1:9b:9d:80:5d:
        0f:6d:cb:48:c8:b8:38:cb:7f:3c:85:d0:44:21:7c:60:7d:c6:
        01:76:ab:33:e4:f8:b4:d7:8f:1d:64:c2:89:f1:4d:9b:b6:99:
        fa:7f:44:0c:3c:85:61:50:1c:b6:55:c8:b4:e8:34:1f:e1:ba:
        68:e1:46:18:0f:44:ed:24:94:54:2f:1d:2d:73:fc:9e:0d:d2:
        1e:77:72:8e:d2:f8:78:f2:41:c2:7b:26:62:ec:0f:6a:47:cd:
        a6:0e
-----BEGIN CERTIFICATE-----
MIIDRTCCAq6gAwIBAgIBKDANBgkqhkiG9w0BAQUFADAwMQswCQYDVQQGEwJJTjES
MBAGA1UECBMJS2FybmF0YWthMQ0wCwYDVQQKEwRTYWhpMB4XDTE1MDQxMDA0MjI1
OVoXDTI1MDQwNzA0MjI1OVowXTELMAkGA1UEBhMCSU4xEjAQBgNVBAgTCUthcm5h
dGFrYTENMAsGA1UEChMEU2FoaTENMAsGA1UECxMEU2FoaTEcMBoGA1UEAxMTYWNj
b3VudHMuZ29vZ2xlLmNvbTCCASIwDQYJKoZIhvcNAQEBBQADggEPADCCAQoCggEB
ALgkmaaClsrmnYIhHD4xi+yzDp4S4CuYPifvyYOoAFPZrSO1uK1LMOV46LFuSsVR
hiN2/QBsMS3Y/kyWj3XAZG6z6XaETHL6MIxqhiLfOphHkgjSROel8keKbF/qGzO6
p/F1FIDeoqFbVJasm6y45GgX14WAhB3ViudhWf5ZrcOGDhm+uV2LAr6geh8YAz4A
pmW5ywtWIdrULJRoivWdjrxIoEcjTbvxWcbhWhF7u8dEIVQBjOdB7IfwwDSk+ONg
OsxPkXQjweUfBB/vSdmZkiqtJ1MLePhdst915a1Oox9bfuR/vTfseqN+EUjtBxhM
bFkDT/Rvy9AKtNjZAOuPXX0CAwEAAaOBvTCBujAJBgNVHRMEAjAAMCwGCWCGSAGG
+EIBDQQfFh1PcGVuU1NMIEdlbmVyYXRlZCBDZXJ0aWZpY2F0ZTAdBgNVHQ4EFgQU
vJIU3Nc0X0JyjjIML+KYG8J62OYwYAYDVR0jBFkwV4AUCS+sfjO/TgCH618/Aais
ge4+GSahNKQyMDAxCzAJBgNVBAYTAklOMRIwEAYDVQQIEwlLYXJuYXRha2ExDTAL
BgNVBAoTBFNhaGmCCQDWjHhc3/WeozANBgkqhkiG9w0BAQUFAAOBgQA2aaFpZq0o
YulEunnhK4iViYr0/oHOO8CoLjETgX73sZudgF0PbctIyLg4y388hdBEIXxgfcYB
dqsz5Pi0148dZMKJ8U2btpn6f0QMPIVhUBy2Vci06DQf4bpo4UYYD0TtJJRULx0t
c/yeDdIed3KO0vh48kHCeyZi7A9qR82mDg==
-----END CERTIFICATE-----
