Certificate:
    Data:
        Version: 3 (0x2)
        Serial Number: 41 (0x29)
        Signature Algorithm: sha1WithRSAEncryption
        Issuer: C=IN, ST=Karnataka, O=Sahi
        Validity
            Not Before: Apr 10 04:23:01 2015 GMT
            Not After : Apr  7 04:23:01 2025 GMT
        Subject: C=IN, ST=Karnataka, O=Sahi, OU=Sahi, CN=accounts.youtube.com
        Subject Public Key Info:
            Public Key Algorithm: rsaEncryption
            RSA Public Key: (2048 bit)
                Modulus (2048 bit):
                    00:c3:be:20:fd:f0:a8:32:2f:43:4f:d9:c2:69:c6:
                    8c:ba:bb:6a:42:3f:d1:a8:cc:97:13:64:28:92:4e:
                    10:04:b6:2c:ef:c4:a1:89:9f:02:32:a3:4e:97:e2:
                    be:8b:f0:9e:ac:35:78:01:bd:1a:c2:63:82:93:c7:
                    25:e3:01:2a:38:3e:79:52:02:33:8f:a3:fe:58:84:
                    50:9b:98:c8:07:c5:82:35:4b:67:18:fc:fe:24:f2:
                    bc:8e:66:0e:a7:a6:a5:ae:7e:4f:3a:73:8b:e9:fd:
                    de:b9:44:a7:c3:d3:e4:cd:64:69:0f:fb:c0:62:0c:
                    7b:92:0c:8f:e3:6d:1d:b2:c3:30:65:a7:32:78:ee:
                    6c:6f:f1:05:cb:4b:a0:68:a3:7a:bf:af:cf:fa:dd:
                    83:80:c5:b6:b0:63:f6:bd:6a:33:d9:25:6e:55:41:
                    b0:7f:71:0c:5e:5a:41:b1:c0:33:d1:0d:b0:bb:6d:
                    25:89:0d:9a:33:50:2a:37:43:00:32:8f:50:f9:a7:
                    aa:5f:db:42:de:b6:a2:11:e3:9c:52:9e:a3:fe:0a:
                    2a:ad:e5:b2:7d:d0:d1:52:28:a1:04:41:f4:dd:50:
                    aa:de:77:69:03:00:01:1c:35:e4:38:18:60:bb:90:
                    0d:8a:07:3a:cc:47:cc:83:71:cb:03:33:26:56:8e:
                    a5:83
                Exponent: 65537 (0x10001)
        X509v3 extensions:
            X509v3 Basic Constraints: 
                CA:FALSE
            Netscape Comment: 
                OpenSSL Generated Certificate
            X509v3 Subject Key Identifier: 
                59:BA:D2:3E:10:03:B2:84:5C:7D:A3:4E:AE:FC:D7:9A:A7:D8:F6:92
            X509v3 Authority Key Identifier: 
                keyid:09:2F:AC:7E:33:BF:4E:00:87:EB:5F:3F:01:A8:AC:81:EE:3E:19:26
                DirName:/C=IN/ST=Karnataka/O=Sahi
                serial:D6:8C:78:5C:DF:F5:9E:A3

    Signature Algorithm: sha1WithRSAEncryption
        d5:e5:4c:a5:6f:35:97:8a:ad:8c:79:c8:35:a6:0e:9c:8b:c7:
        91:b3:e0:d0:f8:de:e2:e2:61:19:ad:a9:2a:3c:59:fe:c1:15:
        8a:4b:f7:90:b8:1e:3d:4a:ac:09:65:34:04:d5:c5:3b:10:f0:
        ce:ea:cc:7a:3b:be:6b:4d:46:69:c5:9b:23:10:28:dd:d4:0e:
        b2:42:22:0d:17:5c:a7:4c:88:79:97:4d:a5:79:76:51:0d:1a:
        32:1d:dd:ea:06:d7:f4:ad:b4:74:78:bd:a5:f9:8f:56:f1:a5:
        fe:e0:01:72:dc:ae:66:f7:82:54:bb:68:7c:85:b7:c3:ab:26:
        c6:c0
-----BEGIN CERTIFICATE-----
MIIDRjCCAq+gAwIBAgIBKTANBgkqhkiG9w0BAQUFADAwMQswCQYDVQQGEwJJTjES
MBAGA1UECBMJS2FybmF0YWthMQ0wCwYDVQQKEwRTYWhpMB4XDTE1MDQxMDA0MjMw
MVoXDTI1MDQwNzA0MjMwMVowXjELMAkGA1UEBhMCSU4xEjAQBgNVBAgTCUthcm5h
dGFrYTENMAsGA1UEChMEU2FoaTENMAsGA1UECxMEU2FoaTEdMBsGA1UEAxMUYWNj
b3VudHMueW91dHViZS5jb20wggEiMA0GCSqGSIb3DQEBAQUAA4IBDwAwggEKAoIB
AQDDviD98KgyL0NP2cJpxoy6u2pCP9GozJcTZCiSThAEtizvxKGJnwIyo06X4r6L
8J6sNXgBvRrCY4KTxyXjASo4PnlSAjOPo/5YhFCbmMgHxYI1S2cY/P4k8ryOZg6n
pqWufk86c4vp/d65RKfD0+TNZGkP+8BiDHuSDI/jbR2ywzBlpzJ47mxv8QXLS6Bo
o3q/r8/63YOAxbawY/a9ajPZJW5VQbB/cQxeWkGxwDPRDbC7bSWJDZozUCo3QwAy
j1D5p6pf20LetqIR45xSnqP+Ciqt5bJ90NFSKKEEQfTdUKred2kDAAEcNeQ4GGC7
kA2KBzrMR8yDccsDMyZWjqWDAgMBAAGjgb0wgbowCQYDVR0TBAIwADAsBglghkgB
hvhCAQ0EHxYdT3BlblNTTCBHZW5lcmF0ZWQgQ2VydGlmaWNhdGUwHQYDVR0OBBYE
FFm60j4QA7KEXH2jTq7815qn2PaSMGAGA1UdIwRZMFeAFAkvrH4zv04Ah+tfPwGo
rIHuPhkmoTSkMjAwMQswCQYDVQQGEwJJTjESMBAGA1UECBMJS2FybmF0YWthMQ0w
CwYDVQQKEwRTYWhpggkA1ox4XN/1nqMwDQYJKoZIhvcNAQEFBQADgYEA1eVMpW81
l4qtjHnINaYOnIvHkbPg0Pje4uJhGa2pKjxZ/sEVikv3kLgePUqsCWU0BNXFOxDw
zurMeju+a01GacWbIxAo3dQOskIiDRdcp0yIeZdNpXl2UQ0aMh3d6gbX9K20dHi9
pfmPVvGl/uABctyuZveCVLtofIW3w6smxsA=
-----END CERTIFICATE-----
