Certificate:
    Data:
        Version: 3 (0x2)
        Serial Number: 42 (0x2a)
        Signature Algorithm: sha1WithRSAEncryption
        Issuer: C=IN, ST=Karnataka, O=Sahi
        Validity
            Not Before: Apr 10 04:23:04 2015 GMT
            Not After : Apr  7 04:23:04 2025 GMT
        Subject: C=IN, ST=Karnataka, O=Sahi, OU=Sahi, CN=fonts.gstatic.com
        Subject Public Key Info:
            Public Key Algorithm: rsaEncryption
            RSA Public Key: (2048 bit)
                Modulus (2048 bit):
                    00:cd:3c:f5:38:2a:92:b7:32:d4:b7:82:36:74:34:
                    a8:6f:6e:cc:aa:8c:47:65:9c:38:74:04:a3:b7:d6:
                    a5:f8:4b:d2:f2:ee:84:d9:49:50:5d:2c:9a:ef:b8:
                    a1:48:c6:3a:b1:d7:c6:ab:73:5a:e9:86:fd:86:67:
                    94:82:1c:1d:4d:ee:bd:af:f5:71:df:fb:f4:9f:91:
                    5b:46:0f:46:e3:a1:d5:cd:a6:fa:dd:d1:f2:f2:04:
                    83:f5:fd:40:d7:50:07:a9:7b:c0:6f:a1:b8:85:8f:
                    66:16:aa:08:66:ce:94:8a:0b:8e:83:01:f4:88:f3:
                    68:fd:8d:76:d1:09:31:5d:0d:07:f7:b1:f0:0f:d4:
                    3f:4e:4e:17:3e:ec:79:dd:78:30:dc:48:d9:5f:a1:
                    dd:18:ad:6a:70:34:db:dd:a5:76:31:5e:4c:00:68:
                    a0:74:ad:1d:f7:25:4a:e9:ed:ba:20:8d:6d:2f:d3:
                    41:b6:8a:8e:3c:a0:3a:12:c6:6b:10:1f:fd:93:03:
                    5e:c3:2a:e2:75:2d:26:5c:12:ef:67:ed:3a:f7:e2:
                    65:be:09:b5:d8:97:ce:9b:4a:20:4b:9f:c1:64:4c:
                    c4:17:51:f4:98:bf:9f:69:61:38:bd:d0:b5:ee:c9:
                    af:64:53:8e:2d:74:f7:67:cd:29:17:54:40:14:7f:
                    b4:49
                Exponent: 65537 (0x10001)
        X509v3 extensions:
            X509v3 Basic Constraints: 
                CA:FALSE
            Netscape Comment: 
                OpenSSL Generated Certificate
            X509v3 Subject Key Identifier: 
                1F:B3:A5:56:8B:ED:BA:D4:4D:5D:D5:3B:C6:FF:B3:68:75:86:3C:D9
            X509v3 Authority Key Identifier: 
                keyid:09:2F:AC:7E:33:BF:4E:00:87:EB:5F:3F:01:A8:AC:81:EE:3E:19:26
                DirName:/C=IN/ST=Karnataka/O=Sahi
                serial:D6:8C:78:5C:DF:F5:9E:A3

    Signature Algorithm: sha1WithRSAEncryption
        0a:d2:0d:0e:24:ec:6b:9f:95:59:3a:da:e6:99:5e:96:9d:82:
        1c:a0:a7:02:da:1a:3e:eb:9e:1a:8c:c6:07:a1:99:32:60:7d:
        5a:c9:9b:17:6c:8c:bd:c3:22:30:68:cc:b1:f8:d6:e1:24:26:
        72:72:71:4c:66:41:52:e1:64:dc:9a:5e:52:99:76:33:a5:c1:
        cb:14:e6:03:7b:63:3c:ab:f2:c0:8c:a9:52:6c:97:1f:65:52:
        48:20:1d:e2:50:85:20:b9:96:8f:24:ab:a7:47:8c:de:e6:a4:
        ce:ae:f6:a4:dc:9d:9a:84:63:07:84:14:7b:c3:23:df:8a:f3:
        ea:ff
-----BEGIN CERTIFICATE-----
MIIDQzCCAqygAwIBAgIBKjANBgkqhkiG9w0BAQUFADAwMQswCQYDVQQGEwJJTjES
MBAGA1UECBMJS2FybmF0YWthMQ0wCwYDVQQKEwRTYWhpMB4XDTE1MDQxMDA0MjMw
NFoXDTI1MDQwNzA0MjMwNFowWzELMAkGA1UEBhMCSU4xEjAQBgNVBAgTCUthcm5h
dGFrYTENMAsGA1UEChMEU2FoaTENMAsGA1UECxMEU2FoaTEaMBgGA1UEAxMRZm9u
dHMuZ3N0YXRpYy5jb20wggEiMA0GCSqGSIb3DQEBAQUAA4IBDwAwggEKAoIBAQDN
PPU4KpK3MtS3gjZ0NKhvbsyqjEdlnDh0BKO31qX4S9Ly7oTZSVBdLJrvuKFIxjqx
18arc1rphv2GZ5SCHB1N7r2v9XHf+/SfkVtGD0bjodXNpvrd0fLyBIP1/UDXUAep
e8BvobiFj2YWqghmzpSKC46DAfSI82j9jXbRCTFdDQf3sfAP1D9OThc+7HndeDDc
SNlfod0YrWpwNNvdpXYxXkwAaKB0rR33JUrp7bogjW0v00G2io48oDoSxmsQH/2T
A17DKuJ1LSZcEu9n7Tr34mW+CbXYl86bSiBLn8FkTMQXUfSYv59pYTi90LXuya9k
U44tdPdnzSkXVEAUf7RJAgMBAAGjgb0wgbowCQYDVR0TBAIwADAsBglghkgBhvhC
AQ0EHxYdT3BlblNTTCBHZW5lcmF0ZWQgQ2VydGlmaWNhdGUwHQYDVR0OBBYEFB+z
pVaL7brUTV3VO8b/s2h1hjzZMGAGA1UdIwRZMFeAFAkvrH4zv04Ah+tfPwGorIHu
PhkmoTSkMjAwMQswCQYDVQQGEwJJTjESMBAGA1UECBMJS2FybmF0YWthMQ0wCwYD
VQQKEwRTYWhpggkA1ox4XN/1nqMwDQYJKoZIhvcNAQEFBQADgYEACtINDiTsa5+V
WTra5plelp2CHKCnAtoaPuueGozGB6GZMmB9WsmbF2yMvcMiMGjMsfjW4SQmcnJx
TGZBUuFk3JpeUpl2M6XByxTmA3tjPKvywIypUmyXH2VSSCAd4lCFILmWjySrp0eM
3uakzq72pNydmoRjB4QUe8Mj34rz6v8=
-----END CERTIFICATE-----
