Certificate:
    Data:
        Version: 3 (0x2)
        Serial Number: 43 (0x2b)
        Signature Algorithm: sha1WithRSAEncryption
        Issuer: C=IN, ST=Karnataka, O=Sahi
        Validity
            Not Before: Apr 10 04:23:24 2015 GMT
            Not After : Apr  7 04:23:24 2025 GMT
        Subject: C=IN, ST=Karnataka, O=Sahi, OU=Sahi, CN=accounts.google.com.vn
        Subject Public Key Info:
            Public Key Algorithm: rsaEncryption
            RSA Public Key: (2048 bit)
                Modulus (2048 bit):
                    00:c9:c3:6b:da:3f:b3:43:b9:de:c7:9a:78:6f:d6:
                    e0:79:42:ab:b8:af:22:38:6b:05:3e:94:21:d1:81:
                    6e:cc:92:c0:a3:eb:c8:71:0f:5a:df:ac:bb:95:2a:
                    89:2b:cd:41:82:8f:25:72:63:51:10:d5:df:0f:f1:
                    7f:8a:e1:27:d5:2f:c9:aa:d1:19:a1:c4:5e:b7:ae:
                    9e:ad:18:d7:88:f3:c5:2e:ae:35:44:91:e6:45:b8:
                    f9:e3:64:40:64:f4:1c:42:41:47:82:93:86:64:4b:
                    86:a1:a9:fd:f7:72:63:45:7a:aa:7c:38:e8:82:ff:
                    e8:bc:d2:35:2a:74:43:43:42:c8:e0:02:7e:91:cf:
                    48:db:0c:91:8c:a8:98:cd:0c:78:97:99:da:e4:89:
                    3e:c7:88:2d:92:87:b0:66:af:26:c6:fd:af:11:59:
                    19:a5:50:8f:ae:f3:90:43:28:c4:3a:ab:bf:8b:07:
                    7c:aa:65:dd:a2:c6:5d:e1:99:16:7c:1d:ed:bb:43:
                    82:1c:43:bd:f1:a8:09:f7:72:4b:2f:df:30:aa:51:
                    93:3c:37:21:5e:e2:a0:48:40:80:cd:da:57:6d:a4:
                    ea:1a:30:3b:83:20:b4:9f:ae:71:33:c1:7e:40:9f:
                    e6:ba:65:be:04:f3:76:6f:c4:22:56:05:fe:e8:4f:
                    e9:ad
                Exponent: 65537 (0x10001)
        X509v3 extensions:
            X509v3 Basic Constraints: 
                CA:FALSE
            Netscape Comment: 
                OpenSSL Generated Certificate
            X509v3 Subject Key Identifier: 
                21:5D:20:9B:F6:12:27:F1:BD:5B:D8:8B:75:45:7B:E7:7D:F1:63:19
            X509v3 Authority Key Identifier: 
                keyid:09:2F:AC:7E:33:BF:4E:00:87:EB:5F:3F:01:A8:AC:81:EE:3E:19:26
                DirName:/C=IN/ST=Karnataka/O=Sahi
                serial:D6:8C:78:5C:DF:F5:9E:A3

    Signature Algorithm: sha1WithRSAEncryption
        30:ab:cc:a1:95:b9:ef:af:4d:ab:67:4a:53:12:cf:66:47:5e:
        59:af:03:e5:f2:46:3b:f6:4f:6b:d0:80:1e:d9:34:f1:56:cf:
        c3:6e:44:ae:7e:d5:11:96:c5:67:c2:a2:01:2f:22:52:b1:8b:
        e8:0a:63:9d:66:65:3f:f6:27:29:d9:91:5f:8a:fc:1e:40:84:
        63:47:6b:63:d9:58:f1:44:ce:36:42:2c:c3:fe:17:31:23:87:
        15:00:1c:81:ac:c9:d6:21:7d:94:09:04:9d:8c:e6:b9:b9:00:
        c8:41:98:27:90:bc:b1:ad:25:31:a9:5c:70:3f:98:64:10:09:
        13:dd
-----BEGIN CERTIFICATE-----
MIIDSDCCArGgAwIBAgIBKzANBgkqhkiG9w0BAQUFADAwMQswCQYDVQQGEwJJTjES
MBAGA1UECBMJS2FybmF0YWthMQ0wCwYDVQQKEwRTYWhpMB4XDTE1MDQxMDA0MjMy
NFoXDTI1MDQwNzA0MjMyNFowYDELMAkGA1UEBhMCSU4xEjAQBgNVBAgTCUthcm5h
dGFrYTENMAsGA1UEChMEU2FoaTENMAsGA1UECxMEU2FoaTEfMB0GA1UEAxMWYWNj
b3VudHMuZ29vZ2xlLmNvbS52bjCCASIwDQYJKoZIhvcNAQEBBQADggEPADCCAQoC
ggEBAMnDa9o/s0O53seaeG/W4HlCq7ivIjhrBT6UIdGBbsySwKPryHEPWt+su5Uq
iSvNQYKPJXJjURDV3w/xf4rhJ9UvyarRGaHEXreunq0Y14jzxS6uNUSR5kW4+eNk
QGT0HEJBR4KThmRLhqGp/fdyY0V6qnw46IL/6LzSNSp0Q0NCyOACfpHPSNsMkYyo
mM0MeJeZ2uSJPseILZKHsGavJsb9rxFZGaVQj67zkEMoxDqrv4sHfKpl3aLGXeGZ
Fnwd7btDghxDvfGoCfdySy/fMKpRkzw3IV7ioEhAgM3aV22k6howO4MgtJ+ucTPB
fkCf5rplvgTzdm/EIlYF/uhP6a0CAwEAAaOBvTCBujAJBgNVHRMEAjAAMCwGCWCG
SAGG+EIBDQQfFh1PcGVuU1NMIEdlbmVyYXRlZCBDZXJ0aWZpY2F0ZTAdBgNVHQ4E
FgQUIV0gm/YSJ/G9W9iLdUV7533xYxkwYAYDVR0jBFkwV4AUCS+sfjO/TgCH618/
Aaisge4+GSahNKQyMDAxCzAJBgNVBAYTAklOMRIwEAYDVQQIEwlLYXJuYXRha2Ex
DTALBgNVBAoTBFNhaGmCCQDWjHhc3/WeozANBgkqhkiG9w0BAQUFAAOBgQAwq8yh
lbnvr02rZ0pTEs9mR15ZrwPl8kY79k9r0IAe2TTxVs/DbkSuftURlsVnwqIBLyJS
sYvoCmOdZmU/9icp2ZFfivweQIRjR2tj2VjxRM42QizD/hcxI4cVAByBrMnWIX2U
CQSdjOa5uQDIQZgnkLyxrSUxqVxwP5hkEAkT3Q==
-----END CERTIFICATE-----
