Certificate:
    Data:
        Version: 3 (0x2)
        Serial Number: 44 (0x2c)
        Signature Algorithm: sha1WithRSAEncryption
        Issuer: C=IN, ST=Karnataka, O=Sahi
        Validity
            Not Before: Apr 10 04:23:28 2015 GMT
            Not After : Apr  7 04:23:28 2025 GMT
        Subject: C=IN, ST=Karnataka, O=Sahi, OU=Sahi, CN=lh4.googleusercontent.com
        Subject Public Key Info:
            Public Key Algorithm: rsaEncryption
            RSA Public Key: (2048 bit)
                Modulus (2048 bit):
                    00:bd:47:aa:0a:68:98:1a:f6:a6:ce:2e:8b:dd:fe:
                    41:70:50:c9:53:76:97:ec:8a:6b:b9:d3:47:92:54:
                    9f:24:03:93:d6:0d:14:b2:3a:10:60:dc:24:d7:36:
                    9e:74:d9:3c:44:46:38:1e:ba:13:6d:98:bf:ca:73:
                    31:3c:c5:0a:3d:17:ef:44:e8:74:30:cd:9f:27:0f:
                    1e:d5:ff:87:c7:96:99:62:3b:fa:d2:fb:5b:65:c1:
                    2c:20:e6:94:5e:61:1b:cf:4a:5c:38:56:8c:7e:c3:
                    31:e3:19:38:86:9a:10:7a:65:b4:3a:2c:1b:8e:32:
                    7d:81:c6:d4:28:28:a9:1d:b8:27:b5:da:98:a4:f1:
                    da:fc:68:13:24:25:a0:16:d7:0c:fa:3e:04:a2:70:
                    2c:70:a7:5f:e0:bd:f7:0f:6a:8b:ae:ee:ed:be:07:
                    73:3e:cc:68:3a:13:1f:fe:e3:97:15:7a:69:84:9c:
                    1b:a9:9a:ea:4e:df:23:da:81:5d:47:c6:47:07:09:
                    38:67:9f:10:f8:69:2e:6e:0b:9f:af:80:53:1c:e8:
                    19:af:bf:5f:80:4e:8e:1b:48:51:b7:a4:67:9a:13:
                    52:62:e6:91:be:09:13:0b:04:0a:e7:d9:b8:8a:12:
                    ea:bc:67:5b:db:ef:54:ef:0b:89:fd:c7:4d:2c:81:
                    b8:67
                Exponent: 65537 (0x10001)
        X509v3 extensions:
            X509v3 Basic Constraints: 
                CA:FALSE
            Netscape Comment: 
                OpenSSL Generated Certificate
            X509v3 Subject Key Identifier: 
                F7:BD:ED:53:84:36:80:EA:E0:F0:A0:99:94:09:08:14:80:31:CC:2D
            X509v3 Authority Key Identifier: 
                keyid:09:2F:AC:7E:33:BF:4E:00:87:EB:5F:3F:01:A8:AC:81:EE:3E:19:26
                DirName:/C=IN/ST=Karnataka/O=Sahi
                serial:D6:8C:78:5C:DF:F5:9E:A3

    Signature Algorithm: sha1WithRSAEncryption
        7d:df:e2:8f:64:a1:fa:8d:82:13:ac:f0:63:c7:c1:ba:e0:d1:
        c0:99:90:71:9c:1c:27:d3:dd:62:83:e2:ad:8a:50:87:38:90:
        39:8c:0b:a7:34:f6:46:70:2b:44:b6:21:63:04:41:5f:f8:b9:
        15:1d:a8:13:24:e1:95:ed:63:30:d5:f5:67:5f:98:ad:fd:2a:
        b0:9b:67:53:78:fb:23:86:4b:6d:1f:cd:af:8f:de:96:ff:2c:
        f5:8a:7b:e4:21:f5:61:6c:ea:41:b8:c9:7a:05:33:2a:6c:88:
        ea:bf:dd:36:1f:3e:ae:c6:d7:7c:d6:62:e8:55:b5:bf:d7:ef:
        3a:ec
-----BEGIN CERTIFICATE-----
MIIDSzCCArSgAwIBAgIBLDANBgkqhkiG9w0BAQUFADAwMQswCQYDVQQGEwJJTjES
MBAGA1UECBMJS2FybmF0YWthMQ0wCwYDVQQKEwRTYWhpMB4XDTE1MDQxMDA0MjMy
OFoXDTI1MDQwNzA0MjMyOFowYzELMAkGA1UEBhMCSU4xEjAQBgNVBAgTCUthcm5h
dGFrYTENMAsGA1UEChMEU2FoaTENMAsGA1UECxMEU2FoaTEiMCAGA1UEAxMZbGg0
Lmdvb2dsZXVzZXJjb250ZW50LmNvbTCCASIwDQYJKoZIhvcNAQEBBQADggEPADCC
AQoCggEBAL1HqgpomBr2ps4ui93+QXBQyVN2l+yKa7nTR5JUnyQDk9YNFLI6EGDc
JNc2nnTZPERGOB66E22Yv8pzMTzFCj0X70TodDDNnycPHtX/h8eWmWI7+tL7W2XB
LCDmlF5hG89KXDhWjH7DMeMZOIaaEHpltDosG44yfYHG1CgoqR24J7XamKTx2vxo
EyQloBbXDPo+BKJwLHCnX+C99w9qi67u7b4Hcz7MaDoTH/7jlxV6aYScG6ma6k7f
I9qBXUfGRwcJOGefEPhpLm4Ln6+AUxzoGa+/X4BOjhtIUbekZ5oTUmLmkb4JEwsE
CufZuIoS6rxnW9vvVO8Lif3HTSyBuGcCAwEAAaOBvTCBujAJBgNVHRMEAjAAMCwG
CWCGSAGG+EIBDQQfFh1PcGVuU1NMIEdlbmVyYXRlZCBDZXJ0aWZpY2F0ZTAdBgNV
HQ4EFgQU973tU4Q2gOrg8KCZlAkIFIAxzC0wYAYDVR0jBFkwV4AUCS+sfjO/TgCH
618/Aaisge4+GSahNKQyMDAxCzAJBgNVBAYTAklOMRIwEAYDVQQIEwlLYXJuYXRh
a2ExDTALBgNVBAoTBFNhaGmCCQDWjHhc3/WeozANBgkqhkiG9w0BAQUFAAOBgQB9
3+KPZKH6jYITrPBjx8G64NHAmZBxnBwn091ig+KtilCHOJA5jAunNPZGcCtEtiFj
BEFf+LkVHagTJOGV7WMw1fVnX5it/Sqwm2dTePsjhkttH82vj96W/yz1invkIfVh
bOpBuMl6BTMqbIjqv902Hz6uxtd81mLoVbW/1+867A==
-----END CERTIFICATE-----
