Certificate:
    Data:
        Version: 3 (0x2)
        Serial Number: 45 (0x2d)
        Signature Algorithm: sha1WithRSAEncryption
        Issuer: C=IN, ST=Karnataka, O=Sahi
        Validity
            Not Before: Apr 10 04:23:29 2015 GMT
            Not After : Apr  7 04:23:29 2025 GMT
        Subject: C=IN, ST=Karnataka, O=Sahi, OU=Sahi, CN=clients5.google.com
        Subject Public Key Info:
            Public Key Algorithm: rsaEncryption
            RSA Public Key: (2048 bit)
                Modulus (2048 bit):
                    00:8b:1e:7f:3e:a0:18:d6:7f:ee:f4:f6:a9:1b:9e:
                    9b:4a:b0:0a:b0:ed:ac:a3:b2:41:82:3e:bf:a8:58:
                    3a:e0:f2:01:c6:20:c3:d5:27:d9:71:58:55:15:eb:
                    f6:89:58:58:94:60:0b:8d:a2:31:f2:af:8b:92:9d:
                    a3:18:f3:63:7c:df:d9:96:e4:17:9b:94:2e:26:f3:
                    eb:1e:f7:66:ca:80:39:66:3c:13:9f:6b:84:87:a1:
                    b1:de:5b:86:7e:6c:af:21:3c:bb:a9:5f:a3:b2:93:
                    14:6a:9f:26:d6:68:ff:a6:f8:6a:01:3b:3d:7a:76:
                    66:6b:92:d4:c3:a5:cf:b0:3c:b9:68:aa:be:37:2d:
                    d2:74:4f:ff:fe:99:af:55:e2:b3:df:9f:bd:88:c3:
                    19:71:12:0c:38:bd:21:d5:50:74:5f:98:20:8e:9f:
                    da:c0:cf:73:07:af:62:d7:80:01:04:c5:7e:d2:02:
                    a4:a1:91:51:6e:46:e3:6e:1b:19:a2:7c:86:14:2f:
                    29:8c:c5:0e:b2:b2:65:94:7e:19:70:83:c1:52:fd:
                    f7:32:89:67:fd:2d:af:8e:6a:69:18:a7:8f:d4:d7:
                    36:9d:fc:d5:87:a3:34:db:6c:f5:85:00:df:b5:5b:
                    76:ff:67:dd:ce:4d:dc:fa:71:91:36:37:23:3f:4b:
                    71:a1
                Exponent: 65537 (0x10001)
        X509v3 extensions:
            X509v3 Basic Constraints: 
                CA:FALSE
            Netscape Comment: 
                OpenSSL Generated Certificate
            X509v3 Subject Key Identifier: 
                B5:0C:AB:7A:43:D4:FC:CD:35:00:97:2E:39:2F:47:47:1B:79:7A:70
            X509v3 Authority Key Identifier: 
                keyid:09:2F:AC:7E:33:BF:4E:00:87:EB:5F:3F:01:A8:AC:81:EE:3E:19:26
                DirName:/C=IN/ST=Karnataka/O=Sahi
                serial:D6:8C:78:5C:DF:F5:9E:A3

    Signature Algorithm: sha1WithRSAEncryption
        7a:4e:77:af:f3:4e:2a:5f:ef:f0:8a:e2:c8:1f:ae:7f:ab:1d:
        f8:42:59:df:c2:f0:ef:03:e3:fd:4d:9f:bd:ea:e4:36:95:3f:
        1c:8b:8e:c3:32:f5:77:fd:17:42:e3:1e:d5:64:6f:47:6e:27:
        4e:34:c4:04:d0:23:7f:15:8b:28:27:59:1d:5e:1c:93:de:0d:
        17:80:6f:e0:1f:ab:83:ef:46:44:48:5a:fe:cf:54:02:c9:91:
        13:34:bd:9a:0e:77:7e:c2:7d:54:60:ff:52:d5:17:7c:32:51:
        a5:bc:aa:49:32:ec:e6:30:26:1d:65:75:9b:c5:7c:ab:38:13:
        b9:59
-----BEGIN CERTIFICATE-----
MIIDRTCCAq6gAwIBAgIBLTANBgkqhkiG9w0BAQUFADAwMQswCQYDVQQGEwJJTjES
MBAGA1UECBMJS2FybmF0YWthMQ0wCwYDVQQKEwRTYWhpMB4XDTE1MDQxMDA0MjMy
OVoXDTI1MDQwNzA0MjMyOVowXTELMAkGA1UEBhMCSU4xEjAQBgNVBAgTCUthcm5h
dGFrYTENMAsGA1UEChMEU2FoaTENMAsGA1UECxMEU2FoaTEcMBoGA1UEAxMTY2xp
ZW50czUuZ29vZ2xlLmNvbTCCASIwDQYJKoZIhvcNAQEBBQADggEPADCCAQoCggEB
AIsefz6gGNZ/7vT2qRuem0qwCrDtrKOyQYI+v6hYOuDyAcYgw9Un2XFYVRXr9olY
WJRgC42iMfKvi5KdoxjzY3zf2ZbkF5uULibz6x73ZsqAOWY8E59rhIehsd5bhn5s
ryE8u6lfo7KTFGqfJtZo/6b4agE7PXp2ZmuS1MOlz7A8uWiqvjct0nRP//6Zr1Xi
s9+fvYjDGXESDDi9IdVQdF+YII6f2sDPcwevYteAAQTFftICpKGRUW5G424bGaJ8
hhQvKYzFDrKyZZR+GXCDwVL99zKJZ/0tr45qaRinj9TXNp381YejNNts9YUA37Vb
dv9n3c5N3PpxkTY3Iz9LcaECAwEAAaOBvTCBujAJBgNVHRMEAjAAMCwGCWCGSAGG
+EIBDQQfFh1PcGVuU1NMIEdlbmVyYXRlZCBDZXJ0aWZpY2F0ZTAdBgNVHQ4EFgQU
tQyrekPU/M01AJcuOS9HRxt5enAwYAYDVR0jBFkwV4AUCS+sfjO/TgCH618/Aais
ge4+GSahNKQyMDAxCzAJBgNVBAYTAklOMRIwEAYDVQQIEwlLYXJuYXRha2ExDTAL
BgNVBAoTBFNhaGmCCQDWjHhc3/WeozANBgkqhkiG9w0BAQUFAAOBgQB6Tnev804q
X+/wiuLIH65/qx34QlnfwvDvA+P9TZ+96uQ2lT8ci47DMvV3/RdC4x7VZG9HbidO
NMQE0CN/FYsoJ1kdXhyT3g0XgG/gH6uD70ZESFr+z1QCyZETNL2aDnd+wn1UYP9S
1Rd8MlGlvKpJMuzmMCYdZXWbxXyrOBO5WQ==
-----END CERTIFICATE-----
