Certificate:
    Data:
        Version: 3 (0x2)
        Serial Number: 46 (0x2e)
        Signature Algorithm: sha1WithRSAEncryption
        Issuer: C=IN, ST=Karnataka, O=Sahi
        Validity
            Not Before: Apr 10 04:23:33 2015 GMT
            Not After : Apr  7 04:23:33 2025 GMT
        Subject: C=IN, ST=Karnataka, O=Sahi, OU=Sahi, CN=plus.google.com
        Subject Public Key Info:
            Public Key Algorithm: rsaEncryption
            RSA Public Key: (2048 bit)
                Modulus (2048 bit):
                    00:e0:2a:96:33:fa:4c:22:ca:2b:fa:22:7a:a5:91:
                    bb:54:4f:82:44:22:a0:1e:d5:a1:ec:cc:63:d6:8d:
                    12:38:dc:2f:15:87:6f:e1:93:04:ee:d6:5d:36:3a:
                    94:c0:85:f5:09:c8:9a:ab:57:df:0a:68:88:87:32:
                    45:08:24:a1:ce:c8:5e:40:af:33:1c:ec:28:92:f2:
                    82:bc:a1:d5:78:c5:13:ae:fb:35:e3:f6:66:ae:e7:
                    48:5e:79:56:05:10:d8:07:3d:12:50:d7:1e:e3:c6:
                    cc:7a:17:f6:34:a0:e1:29:83:49:e0:ff:3c:4f:58:
                    49:5a:87:89:8e:8d:b3:b1:57:d2:56:71:cc:ec:d9:
                    ea:7a:b8:0d:d7:92:27:ec:66:be:bd:9e:4c:70:c7:
                    88:13:ce:3e:56:00:15:b2:09:72:27:10:2b:9f:3d:
                    7d:4e:6c:b2:cc:6a:05:5e:8e:c1:34:5a:2b:c8:1a:
                    dd:62:84:b3:16:57:e7:f6:e3:74:d3:10:32:2f:11:
                    52:3c:86:e9:ad:93:a8:78:00:51:ff:30:7a:c5:c2:
                    c9:90:6d:e1:aa:28:0c:7b:c9:f5:2f:3b:db:3a:b3:
                    76:14:7d:da:2c:ef:05:dc:e5:c6:bd:55:af:73:12:
                    da:cb:22:f1:97:e4:d3:dc:61:ce:14:d3:96:04:39:
                    7a:bb
                Exponent: 65537 (0x10001)
        X509v3 extensions:
            X509v3 Basic Constraints: 
                CA:FALSE
            Netscape Comment: 
                OpenSSL Generated Certificate
            X509v3 Subject Key Identifier: 
                04:F6:35:D9:F9:87:69:78:C7:6A:5D:15:E6:D0:20:4E:71:6B:7F:C2
            X509v3 Authority Key Identifier: 
                keyid:09:2F:AC:7E:33:BF:4E:00:87:EB:5F:3F:01:A8:AC:81:EE:3E:19:26
                DirName:/C=IN/ST=Karnataka/O=Sahi
                serial:D6:8C:78:5C:DF:F5:9E:A3

    Signature Algorithm: sha1WithRSAEncryption
        dd:02:56:af:2b:fb:99:65:19:1a:5b:96:ed:0a:5e:18:e7:e9:
        16:58:c7:0c:25:f6:05:cc:a5:1d:23:49:3d:e7:c1:0b:23:89:
        ff:8a:ea:d0:eb:79:5f:54:28:81:7f:9c:2d:3f:b8:fc:84:eb:
        17:8b:98:4f:2d:44:7c:46:e2:51:8c:0e:e6:e6:9b:e0:2f:77:
        bf:6c:32:e7:2f:0e:28:e9:16:aa:0a:bc:5d:c7:b9:ed:db:e2:
        62:ea:a2:b5:20:d3:24:8e:53:82:c5:5d:c1:45:c1:e7:ed:2c:
        e1:82:43:24:15:dc:73:5b:53:a7:ea:bf:7f:09:f6:41:5f:bf:
        3c:22
-----BEGIN CERTIFICATE-----
MIIDQTCCAqqgAwIBAgIBLjANBgkqhkiG9w0BAQUFADAwMQswCQYDVQQGEwJJTjES
MBAGA1UECBMJS2FybmF0YWthMQ0wCwYDVQQKEwRTYWhpMB4XDTE1MDQxMDA0MjMz
M1oXDTI1MDQwNzA0MjMzM1owWTELMAkGA1UEBhMCSU4xEjAQBgNVBAgTCUthcm5h
dGFrYTENMAsGA1UEChMEU2FoaTENMAsGA1UECxMEU2FoaTEYMBYGA1UEAxMPcGx1
cy5nb29nbGUuY29tMIIBIjANBgkqhkiG9w0BAQEFAAOCAQ8AMIIBCgKCAQEA4CqW
M/pMIsor+iJ6pZG7VE+CRCKgHtWh7Mxj1o0SONwvFYdv4ZME7tZdNjqUwIX1Ccia
q1ffCmiIhzJFCCShzsheQK8zHOwokvKCvKHVeMUTrvs14/ZmrudIXnlWBRDYBz0S
UNce48bMehf2NKDhKYNJ4P88T1hJWoeJjo2zsVfSVnHM7NnqergN15In7Ga+vZ5M
cMeIE84+VgAVsglyJxArnz19TmyyzGoFXo7BNForyBrdYoSzFlfn9uN00xAyLxFS
PIbprZOoeABR/zB6xcLJkG3hqigMe8n1LzvbOrN2FH3aLO8F3OXGvVWvcxLayyLx
l+TT3GHOFNOWBDl6uwIDAQABo4G9MIG6MAkGA1UdEwQCMAAwLAYJYIZIAYb4QgEN
BB8WHU9wZW5TU0wgR2VuZXJhdGVkIENlcnRpZmljYXRlMB0GA1UdDgQWBBQE9jXZ
+YdpeMdqXRXm0CBOcWt/wjBgBgNVHSMEWTBXgBQJL6x+M79OAIfrXz8BqKyB7j4Z
JqE0pDIwMDELMAkGA1UEBhMCSU4xEjAQBgNVBAgTCUthcm5hdGFrYTENMAsGA1UE
ChMEU2FoaYIJANaMeFzf9Z6jMA0GCSqGSIb3DQEBBQUAA4GBAN0CVq8r+5llGRpb
lu0KXhjn6RZYxwwl9gXMpR0jST3nwQsjif+K6tDreV9UKIF/nC0/uPyE6xeLmE8t
RHxG4lGMDubmm+Avd79sMucvDijpFqoKvF3Hue3b4mLqorUg0ySOU4LFXcFFweft
LOGCQyQV3HNbU6fqv38J9kFfvzwi
-----END CERTIFICATE-----
