Certificate:
    Data:
        Version: 3 (0x2)
        Serial Number: 47 (0x2f)
        Signature Algorithm: sha1WithRSAEncryption
        Issuer: C=IN, ST=Karnataka, O=Sahi
        Validity
            Not Before: Apr 10 04:24:24 2015 GMT
            Not After : Apr  7 04:24:24 2025 GMT
        Subject: C=IN, ST=Karnataka, O=Sahi, OU=Sahi, CN=ssl.google-analytics.com
        Subject Public Key Info:
            Public Key Algorithm: rsaEncryption
            RSA Public Key: (2048 bit)
                Modulus (2048 bit):
                    00:8b:26:ea:68:2f:57:6c:99:27:73:fa:d9:3a:7c:
                    be:6e:50:ec:b5:b6:0e:6e:fb:43:ed:33:56:eb:4f:
                    35:a0:39:fe:f0:42:aa:4d:74:59:9c:61:45:96:9f:
                    d5:e9:b5:1b:73:3f:86:99:f1:3f:c2:b6:98:55:c7:
                    4a:24:fb:7c:d1:3c:88:8e:7f:2c:91:d7:36:6a:cb:
                    4b:85:ee:eb:0a:cc:47:8b:99:33:83:ad:7d:b0:20:
                    d4:03:a2:b4:06:00:dd:5b:ae:0c:59:f3:df:c5:d0:
                    eb:9f:88:93:a2:f9:1b:a4:96:b6:9f:69:cd:12:64:
                    92:fb:a5:09:14:7c:ba:a0:75:b8:ca:ea:6e:9c:7f:
                    9c:aa:fe:db:ab:d8:d8:ff:48:7e:fc:d2:af:99:c4:
                    84:8f:ed:42:2a:45:3a:da:40:f5:28:46:09:32:6a:
                    8b:04:1b:62:56:ac:11:44:75:fa:df:90:72:85:e1:
                    e1:bf:ae:e9:aa:18:91:07:3f:05:3c:24:dc:9f:1a:
                    b0:d5:b4:99:9e:ca:5a:77:88:2f:90:b6:53:13:b8:
                    c2:94:61:ed:36:ab:a5:b5:ed:33:63:e3:92:f0:e5:
                    45:f1:7c:32:6c:fe:c5:4a:23:2c:8f:41:00:76:bf:
                    53:2d:82:c3:26:c1:d4:72:34:4f:bb:fc:4d:a3:75:
                    d7:c3
                Exponent: 65537 (0x10001)
        X509v3 extensions:
            X509v3 Basic Constraints: 
                CA:FALSE
            Netscape Comment: 
                OpenSSL Generated Certificate
            X509v3 Subject Key Identifier: 
                33:A2:3F:B3:C7:05:5F:A9:43:18:7F:7A:E8:75:7F:39:C5:FA:CD:BC
            X509v3 Authority Key Identifier: 
                keyid:09:2F:AC:7E:33:BF:4E:00:87:EB:5F:3F:01:A8:AC:81:EE:3E:19:26
                DirName:/C=IN/ST=Karnataka/O=Sahi
                serial:D6:8C:78:5C:DF:F5:9E:A3

    Signature Algorithm: sha1WithRSAEncryption
        2d:4b:bd:df:65:e4:a7:08:c0:0d:6f:b6:5e:6f:3c:6d:ef:4c:
        4a:82:95:e1:bd:6a:1a:f9:37:69:59:7d:46:91:ba:7f:1c:9a:
        b2:ac:67:22:0b:e3:d2:06:b0:fe:21:23:c3:b6:a3:4e:1e:93:
        e1:63:8e:68:82:e8:94:39:7a:4e:70:68:d3:cb:32:a9:86:fb:
        ce:d6:17:e5:6f:df:e0:8a:6b:3e:dc:2e:57:5b:43:7d:d4:0e:
        85:83:32:58:42:4a:cc:53:cb:1a:60:25:ef:d5:7d:57:f6:b1:
        5d:ef:b6:ea:4c:3a:30:1d:96:6f:53:4b:d2:9b:6a:da:10:d3:
        5e:79
-----BEGIN CERTIFICATE-----
MIIDSjCCArOgAwIBAgIBLzANBgkqhkiG9w0BAQUFADAwMQswCQYDVQQGEwJJTjES
MBAGA1UECBMJS2FybmF0YWthMQ0wCwYDVQQKEwRTYWhpMB4XDTE1MDQxMDA0MjQy
NFoXDTI1MDQwNzA0MjQyNFowYjELMAkGA1UEBhMCSU4xEjAQBgNVBAgTCUthcm5h
dGFrYTENMAsGA1UEChMEU2FoaTENMAsGA1UECxMEU2FoaTEhMB8GA1UEAxMYc3Ns
Lmdvb2dsZS1hbmFseXRpY3MuY29tMIIBIjANBgkqhkiG9w0BAQEFAAOCAQ8AMIIB
CgKCAQEAiybqaC9XbJknc/rZOny+blDstbYObvtD7TNW6081oDn+8EKqTXRZnGFF
lp/V6bUbcz+GmfE/wraYVcdKJPt80TyIjn8skdc2astLhe7rCsxHi5kzg619sCDU
A6K0BgDdW64MWfPfxdDrn4iTovkbpJa2n2nNEmSS+6UJFHy6oHW4yupunH+cqv7b
q9jY/0h+/NKvmcSEj+1CKkU62kD1KEYJMmqLBBtiVqwRRHX635ByheHhv67pqhiR
Bz8FPCTcnxqw1bSZnspad4gvkLZTE7jClGHtNqulte0zY+OS8OVF8XwybP7FSiMs
j0EAdr9TLYLDJsHUcjRPu/xNo3XXwwIDAQABo4G9MIG6MAkGA1UdEwQCMAAwLAYJ
YIZIAYb4QgENBB8WHU9wZW5TU0wgR2VuZXJhdGVkIENlcnRpZmljYXRlMB0GA1Ud
DgQWBBQzoj+zxwVfqUMYf3rodX85xfrNvDBgBgNVHSMEWTBXgBQJL6x+M79OAIfr
Xz8BqKyB7j4ZJqE0pDIwMDELMAkGA1UEBhMCSU4xEjAQBgNVBAgTCUthcm5hdGFr
YTENMAsGA1UEChMEU2FoaYIJANaMeFzf9Z6jMA0GCSqGSIb3DQEBBQUAA4GBAC1L
vd9l5KcIwA1vtl5vPG3vTEqCleG9ahr5N2lZfUaRun8cmrKsZyIL49IGsP4hI8O2
o04ek+FjjmiC6JQ5ek5waNPLMqmG+87WF+Vv3+CKaz7cLldbQ33UDoWDMlhCSsxT
yxpgJe/VfVf2sV3vtupMOjAdlm9TS9KbatoQ0155
-----END CERTIFICATE-----
