Certificate:
    Data:
        Version: 3 (0x2)
        Serial Number: 48 (0x30)
        Signature Algorithm: sha1WithRSAEncryption
        Issuer: C=IN, ST=Karnataka, O=Sahi
        Validity
            Not Before: Apr 10 04:24:26 2015 GMT
            Not After : Apr  7 04:24:26 2025 GMT
        Subject: C=IN, ST=Karnataka, O=Sahi, OU=Sahi, CN=oauth.googleusercontent.com
        Subject Public Key Info:
            Public Key Algorithm: rsaEncryption
            RSA Public Key: (2048 bit)
                Modulus (2048 bit):
                    00:9a:5e:62:31:80:3c:a9:3b:9d:2b:e6:86:80:30:
                    4c:38:76:fc:be:97:57:e6:c4:85:fb:26:70:50:09:
                    2c:be:85:00:ff:b5:69:56:38:ce:9a:95:0e:35:0e:
                    06:cd:ef:7c:ac:b0:61:de:88:f2:ed:73:b8:15:6c:
                    82:67:1c:36:07:8e:b8:6f:61:19:1f:28:5e:d6:32:
                    3c:80:2f:98:8a:97:75:c3:6c:da:53:8a:17:01:37:
                    0e:85:a0:ea:3e:42:46:37:4f:ac:40:a1:23:4b:7c:
                    3b:20:80:22:b1:53:2b:bd:bb:45:44:ff:92:8a:eb:
                    79:fb:a9:5e:43:ba:fd:8d:21:76:71:b0:b1:e0:3c:
                    dc:dc:f7:22:f5:de:58:a8:3b:c1:f1:c2:b5:0f:ce:
                    e8:14:f0:4c:fa:63:5b:9f:0c:fc:8f:49:53:4e:ce:
                    e2:c7:14:6c:0f:e0:59:e8:46:19:05:d4:23:d8:56:
                    5c:b8:35:59:c5:ac:51:b5:41:0a:20:c8:ca:76:3c:
                    cf:51:74:22:12:90:ba:42:df:34:9d:e6:36:8f:91:
                    9c:6c:33:74:04:f1:27:c1:9a:3d:e7:56:cb:11:8a:
                    b0:95:06:68:f2:a0:a0:8d:7a:57:b9:5a:1c:97:f5:
                    6a:52:a2:fe:8b:cd:f4:e4:b0:bf:d6:a7:73:33:ef:
                    96:d3
                Exponent: 65537 (0x10001)
        X509v3 extensions:
            X509v3 Basic Constraints: 
                CA:FALSE
            Netscape Comment: 
                OpenSSL Generated Certificate
            X509v3 Subject Key Identifier: 
                4F:66:A3:6A:37:EC:1C:EF:99:E3:53:6B:81:0E:16:F8:2D:6E:2B:58
            X509v3 Authority Key Identifier: 
                keyid:09:2F:AC:7E:33:BF:4E:00:87:EB:5F:3F:01:A8:AC:81:EE:3E:19:26
                DirName:/C=IN/ST=Karnataka/O=Sahi
                serial:D6:8C:78:5C:DF:F5:9E:A3

    Signature Algorithm: sha1WithRSAEncryption
        af:83:27:a7:0c:fa:ac:70:17:c4:54:2c:d6:48:1f:a1:52:ec:
        5f:aa:27:56:f4:08:1b:2e:24:36:18:2b:43:22:c7:bf:10:3e:
        f9:ae:64:b1:de:f0:f6:81:f8:b3:25:ce:e5:c6:5e:d3:ef:8f:
        36:02:4f:25:5b:04:d8:46:45:7a:73:a2:b7:6d:cf:d6:14:a2:
        27:0a:87:83:59:8e:61:e1:ef:d9:6c:3c:52:f1:8f:a5:98:8e:
        67:73:9c:8f:79:87:cf:55:50:a7:e9:21:e7:39:4f:12:07:15:
        23:0c:57:6d:4f:fa:4c:05:4f:69:4a:a3:e0:2a:9d:19:b0:30:
        f0:d6
-----BEGIN CERTIFICATE-----
MIIDTTCCAragAwIBAgIBMDANBgkqhkiG9w0BAQUFADAwMQswCQYDVQQGEwJJTjES
MBAGA1UECBMJS2FybmF0YWthMQ0wCwYDVQQKEwRTYWhpMB4XDTE1MDQxMDA0MjQy
NloXDTI1MDQwNzA0MjQyNlowZTELMAkGA1UEBhMCSU4xEjAQBgNVBAgTCUthcm5h
dGFrYTENMAsGA1UEChMEU2FoaTENMAsGA1UECxMEU2FoaTEkMCIGA1UEAxMbb2F1
dGguZ29vZ2xldXNlcmNvbnRlbnQuY29tMIIBIjANBgkqhkiG9w0BAQEFAAOCAQ8A
MIIBCgKCAQEAml5iMYA8qTudK+aGgDBMOHb8vpdX5sSF+yZwUAksvoUA/7VpVjjO
mpUONQ4Gze98rLBh3ojy7XO4FWyCZxw2B464b2EZHyhe1jI8gC+Yipd1w2zaU4oX
ATcOhaDqPkJGN0+sQKEjS3w7IIAisVMrvbtFRP+Siut5+6leQ7r9jSF2cbCx4Dzc
3Pci9d5YqDvB8cK1D87oFPBM+mNbnwz8j0lTTs7ixxRsD+BZ6EYZBdQj2FZcuDVZ
xaxRtUEKIMjKdjzPUXQiEpC6Qt80neY2j5GcbDN0BPEnwZo951bLEYqwlQZo8qCg
jXpXuVocl/VqUqL+i8305LC/1qdzM++W0wIDAQABo4G9MIG6MAkGA1UdEwQCMAAw
LAYJYIZIAYb4QgENBB8WHU9wZW5TU0wgR2VuZXJhdGVkIENlcnRpZmljYXRlMB0G
A1UdDgQWBBRPZqNqN+wc75njU2uBDhb4LW4rWDBgBgNVHSMEWTBXgBQJL6x+M79O
AIfrXz8BqKyB7j4ZJqE0pDIwMDELMAkGA1UEBhMCSU4xEjAQBgNVBAgTCUthcm5h
dGFrYTENMAsGA1UEChMEU2FoaYIJANaMeFzf9Z6jMA0GCSqGSIb3DQEBBQUAA4GB
AK+DJ6cM+qxwF8RULNZIH6FS7F+qJ1b0CBsuJDYYK0Mix78QPvmuZLHe8PaB+LMl
zuXGXtPvjzYCTyVbBNhGRXpzordtz9YUoicKh4NZjmHh79lsPFLxj6WYjmdznI95
h89VUKfpIec5TxIHFSMMV21P+kwFT2lKo+AqnRmwMPDW
-----END CERTIFICATE-----
