Certificate:
    Data:
        Version: 3 (0x2)
        Serial Number: 49 (0x31)
        Signature Algorithm: sha1WithRSAEncryption
        Issuer: C=IN, ST=Karnataka, O=Sahi
        Validity
            Not Before: Apr 10 04:25:17 2015 GMT
            Not After : Apr  7 04:25:17 2025 GMT
        Subject: C=IN, ST=Karnataka, O=Sahi, OU=Sahi, CN=p5-shpevifteomxs-mnfckufku7w3loj2-533128-i2-v6exp3-v4.metric.gstatic.com
        Subject Public Key Info:
            Public Key Algorithm: rsaEncryption
            RSA Public Key: (2048 bit)
                Modulus (2048 bit):
                    00:ae:31:3a:d4:bb:c3:21:f3:50:d2:3d:29:cd:ac:
                    01:39:02:78:de:9f:93:bd:35:25:0a:3d:7a:e9:27:
                    78:8b:62:90:70:c5:6b:b3:ad:9c:46:f9:59:cc:ba:
                    14:57:23:b3:5b:26:e8:f2:78:c9:bb:1d:b8:8a:20:
                    8e:fa:11:99:49:4c:a8:41:b6:fe:4b:d8:a1:6d:ed:
                    4f:81:a5:7d:6d:47:f7:bf:dc:2f:c6:71:09:76:30:
                    c2:eb:89:f0:14:e1:da:27:ca:a3:ca:68:4a:4a:37:
                    a1:b4:9a:ee:11:30:82:98:f4:db:88:e9:9d:66:35:
                    c6:f5:f9:e5:cd:18:1a:dd:9b:0d:65:44:0e:f7:64:
                    31:9e:41:25:90:9e:db:e4:bb:28:dd:cf:e4:25:5f:
                    d3:82:0a:25:56:f0:8e:38:fa:38:87:a0:5b:6f:3c:
                    25:62:2d:1a:18:b3:cb:b3:6e:9c:72:9a:72:ac:ae:
                    40:3e:e0:9e:9b:4e:68:0c:e6:39:3b:d4:7d:ee:ad:
                    99:f0:77:89:b5:14:2f:e2:00:f5:d5:cd:72:1e:e9:
                    9b:c2:d9:79:5f:b5:f7:83:f3:01:89:d6:b6:7a:4e:
                    60:b1:9f:ea:64:57:0f:40:07:22:9a:c1:72:5f:f4:
                    2f:1a:7a:20:4e:69:04:8c:13:67:c7:1b:8e:31:79:
                    26:9b
                Exponent: 65537 (0x10001)
        X509v3 extensions:
            X509v3 Basic Constraints: 
                CA:FALSE
            Netscape Comment: 
                OpenSSL Generated Certificate
            X509v3 Subject Key Identifier: 
                60:1D:03:8A:13:99:74:10:81:B1:B7:1E:0F:A3:B3:26:4E:76:78:88
            X509v3 Authority Key Identifier: 
                keyid:09:2F:AC:7E:33:BF:4E:00:87:EB:5F:3F:01:A8:AC:81:EE:3E:19:26
                DirName:/C=IN/ST=Karnataka/O=Sahi
                serial:D6:8C:78:5C:DF:F5:9E:A3

    Signature Algorithm: sha1WithRSAEncryption
        03:6e:6e:ff:76:89:ac:9d:4f:30:13:d0:33:59:68:c9:43:43:
        78:74:84:31:06:cf:db:0c:21:80:07:6e:c8:3a:8f:be:d6:0e:
        19:cf:7d:f8:83:1d:6b:30:5d:70:dd:fc:89:f7:ad:ab:43:99:
        13:d0:cf:cf:85:1b:b3:13:6d:ae:80:25:3f:39:1d:a9:6e:9a:
        a0:8d:75:15:1f:46:ad:d4:8b:9e:ec:0c:33:06:9c:b9:d1:48:
        c3:9f:05:92:66:fd:57:12:b2:54:06:48:9f:da:d7:86:14:73:
        82:4e:c2:53:c6:6c:97:85:dd:0c:0e:3a:a3:bc:ab:ea:b4:8d:
        94:67
-----BEGIN CERTIFICATE-----
MIIDezCCAuSgAwIBAgIBMTANBgkqhkiG9w0BAQUFADAwMQswCQYDVQQGEwJJTjES
MBAGA1UECBMJS2FybmF0YWthMQ0wCwYDVQQKEwRTYWhpMB4XDTE1MDQxMDA0MjUx
N1oXDTI1MDQwNzA0MjUxN1owgZIxCzAJBgNVBAYTAklOMRIwEAYDVQQIEwlLYXJu
YXRha2ExDTALBgNVBAoTBFNhaGkxDTALBgNVBAsTBFNhaGkxUTBPBgNVBAMTSHA1
LXNocGV2aWZ0ZW9teHMtbW5mY2t1Zmt1N3czbG9qMi01MzMxMjgtaTItdjZleHAz
LXY0Lm1ldHJpYy5nc3RhdGljLmNvbTCCASIwDQYJKoZIhvcNAQEBBQADggEPADCC
AQoCggEBAK4xOtS7wyHzUNI9Kc2sATkCeN6fk701JQo9eukneItikHDFa7OtnEb5
Wcy6FFcjs1sm6PJ4ybsduIogjvoRmUlMqEG2/kvYoW3tT4GlfW1H97/cL8ZxCXYw
wuuJ8BTh2ifKo8poSko3obSa7hEwgpj024jpnWY1xvX55c0YGt2bDWVEDvdkMZ5B
JZCe2+S7KN3P5CVf04IKJVbwjjj6OIegW288JWItGhizy7NunHKacqyuQD7gnptO
aAzmOTvUfe6tmfB3ibUUL+IA9dXNch7pm8LZeV+194PzAYnWtnpOYLGf6mRXD0AH
IprBcl/0Lxp6IE5pBIwTZ8cbjjF5JpsCAwEAAaOBvTCBujAJBgNVHRMEAjAAMCwG
CWCGSAGG+EIBDQQfFh1PcGVuU1NMIEdlbmVyYXRlZCBDZXJ0aWZpY2F0ZTAdBgNV
HQ4EFgQUYB0DihOZdBCBsbceD6OzJk52eIgwYAYDVR0jBFkwV4AUCS+sfjO/TgCH
618/Aaisge4+GSahNKQyMDAxCzAJBgNVBAYTAklOMRIwEAYDVQQIEwlLYXJuYXRh
a2ExDTALBgNVBAoTBFNhaGmCCQDWjHhc3/WeozANBgkqhkiG9w0BAQUFAAOBgQAD
bm7/domsnU8wE9AzWWjJQ0N4dIQxBs/bDCGAB27IOo++1g4Zz334gx1rMF1w3fyJ
962rQ5kT0M/PhRuzE22ugCU/OR2pbpqgjXUVH0at1Iue7AwzBpy50UjDnwWSZv1X
ErJUBkif2teGFHOCTsJTxmyXhd0MDjqjvKvqtI2UZw==
-----END CERTIFICATE-----
