Certificate:
    Data:
        Version: 3 (0x2)
        Serial Number: 50 (0x32)
        Signature Algorithm: sha1WithRSAEncryption
        Issuer: C=IN, ST=Karnataka, O=Sahi
        Validity
            Not Before: Apr 10 04:25:19 2015 GMT
            Not After : Apr  7 04:25:19 2025 GMT
        Subject: C=IN, ST=Karnataka, O=Sahi, OU=Sahi, CN=p5-shpevifteomxs-mnfckufku7w3loj2-533128-i1-v6exp3-ds.metric.gstatic.com
        Subject Public Key Info:
            Public Key Algorithm: rsaEncryption
            RSA Public Key: (2048 bit)
                Modulus (2048 bit):
                    00:88:77:aa:68:3a:75:c8:84:50:7b:38:49:f1:a7:
                    9d:a5:81:d0:ab:f4:b5:0f:08:44:7f:40:8e:67:5f:
                    e4:5c:59:c5:2a:0e:ae:0e:bf:d6:8a:da:e9:08:4d:
                    96:6e:1e:2c:f6:7b:ed:21:6e:57:18:da:ca:71:3e:
                    d0:64:92:94:5c:56:df:ff:39:a5:a9:ea:92:c5:f3:
                    13:f4:79:91:eb:22:82:60:b1:80:cf:73:dc:d5:0d:
                    7b:48:33:12:20:66:f6:ea:58:2b:3e:51:50:77:5a:
                    46:eb:59:d4:ef:bd:96:0f:de:29:24:10:18:6f:c9:
                    52:ec:0c:dc:e9:c5:84:27:2c:7f:42:a7:cf:03:67:
                    89:ee:3b:46:14:b6:9d:38:98:c5:8b:5a:1b:2f:6a:
                    6b:49:7f:1c:64:79:29:76:76:db:53:e1:0a:a4:4d:
                    bd:88:c6:df:43:56:93:cc:b2:c1:57:96:16:e7:d5:
                    e1:cf:0c:d0:da:88:d2:fb:23:f4:5e:42:75:c0:de:
                    a7:99:dd:af:18:93:4c:bc:15:d7:cd:ff:49:ad:fc:
                    e3:40:c3:bc:e3:55:ca:c2:86:5d:e6:e0:b7:04:96:
                    80:fd:0b:3a:70:f0:4e:31:eb:78:9f:09:f0:11:20:
                    42:75:31:39:b2:d8:83:b7:0f:87:6c:53:ff:3c:e2:
                    5a:17
                Exponent: 65537 (0x10001)
        X509v3 extensions:
            X509v3 Basic Constraints: 
                CA:FALSE
            Netscape Comment: 
                OpenSSL Generated Certificate
            X509v3 Subject Key Identifier: 
                1A:55:41:A7:D4:4C:0F:60:D5:5B:84:C6:5C:35:DC:7D:62:B3:02:FA
            X509v3 Authority Key Identifier: 
                keyid:09:2F:AC:7E:33:BF:4E:00:87:EB:5F:3F:01:A8:AC:81:EE:3E:19:26
                DirName:/C=IN/ST=Karnataka/O=Sahi
                serial:D6:8C:78:5C:DF:F5:9E:A3

    Signature Algorithm: sha1WithRSAEncryption
        b7:18:01:ed:ed:bf:84:ab:5f:ec:fe:98:ff:f5:e5:04:2a:3c:
        44:e8:87:1e:af:ba:b1:a2:6f:7f:24:0a:45:a7:c5:cb:da:46:
        03:f6:25:d6:12:07:1e:c7:01:12:59:56:90:0c:30:c7:e4:7e:
        b5:87:a7:30:93:b3:fd:18:3b:14:bb:96:36:f8:60:6d:97:63:
        b7:4c:1e:34:41:0b:05:d5:7b:09:3a:50:c0:ef:27:0d:04:59:
        44:8d:97:7e:7b:f9:98:9f:16:8a:d8:78:04:04:84:77:4f:ae:
        10:40:be:d1:1a:b5:c0:02:16:c7:01:c3:94:af:81:16:3e:f2:
        99:ca
-----BEGIN CERTIFICATE-----
MIIDezCCAuSgAwIBAgIBMjANBgkqhkiG9w0BAQUFADAwMQswCQYDVQQGEwJJTjES
MBAGA1UECBMJS2FybmF0YWthMQ0wCwYDVQQKEwRTYWhpMB4XDTE1MDQxMDA0MjUx
OVoXDTI1MDQwNzA0MjUxOVowgZIxCzAJBgNVBAYTAklOMRIwEAYDVQQIEwlLYXJu
YXRha2ExDTALBgNVBAoTBFNhaGkxDTALBgNVBAsTBFNhaGkxUTBPBgNVBAMTSHA1
LXNocGV2aWZ0ZW9teHMtbW5mY2t1Zmt1N3czbG9qMi01MzMxMjgtaTEtdjZleHAz
LWRzLm1ldHJpYy5nc3RhdGljLmNvbTCCASIwDQYJKoZIhvcNAQEBBQADggEPADCC
AQoCggEBAIh3qmg6dciEUHs4SfGnnaWB0Kv0tQ8IRH9Ajmdf5FxZxSoOrg6/1ora
6QhNlm4eLPZ77SFuVxjaynE+0GSSlFxW3/85panqksXzE/R5kesigmCxgM9z3NUN
e0gzEiBm9upYKz5RUHdaRutZ1O+9lg/eKSQQGG/JUuwM3OnFhCcsf0KnzwNnie47
RhS2nTiYxYtaGy9qa0l/HGR5KXZ221PhCqRNvYjG30NWk8yywVeWFufV4c8M0NqI
0vsj9F5CdcDep5ndrxiTTLwV183/Sa3840DDvONVysKGXebgtwSWgP0LOnDwTjHr
eJ8J8BEgQnUxObLYg7cPh2xT/zziWhcCAwEAAaOBvTCBujAJBgNVHRMEAjAAMCwG
CWCGSAGG+EIBDQQfFh1PcGVuU1NMIEdlbmVyYXRlZCBDZXJ0aWZpY2F0ZTAdBgNV
HQ4EFgQUGlVBp9RMD2DVW4TGXDXcfWKzAvowYAYDVR0jBFkwV4AUCS+sfjO/TgCH
618/Aaisge4+GSahNKQyMDAxCzAJBgNVBAYTAklOMRIwEAYDVQQIEwlLYXJuYXRh
a2ExDTALBgNVBAoTBFNhaGmCCQDWjHhc3/WeozANBgkqhkiG9w0BAQUFAAOBgQC3
GAHt7b+Eq1/s/pj/9eUEKjxE6Icer7qxom9/JApFp8XL2kYD9iXWEgcexwESWVaQ
DDDH5H61h6cwk7P9GDsUu5Y2+GBtl2O3TB40QQsF1XsJOlDA7ycNBFlEjZd+e/mY
nxaK2HgEBIR3T64QQL7RGrXAAhbHAcOUr4EWPvKZyg==
-----END CERTIFICATE-----
