Certificate:
    Data:
        Version: 3 (0x2)
        Serial Number: 51 (0x33)
        Signature Algorithm: sha1WithRSAEncryption
        Issuer: C=IN, ST=Karnataka, O=Sahi
        Validity
            Not Before: Apr 10 04:25:33 2015 GMT
            Not After : Apr  7 04:25:33 2025 GMT
        Subject: C=IN, ST=Karnataka, O=Sahi, OU=Sahi, CN=p5-webcelqs6bths-4jwmf4jzxpdout3y-803614-i1-v6exp3-ds.metric.gstatic.com
        Subject Public Key Info:
            Public Key Algorithm: rsaEncryption
            RSA Public Key: (2048 bit)
                Modulus (2048 bit):
                    00:e0:84:1b:54:c5:ec:6e:52:91:e0:cd:24:6b:1c:
                    37:82:9e:f6:04:6a:da:52:6c:39:7e:e5:97:dd:30:
                    18:cc:45:42:16:ca:a6:0f:15:73:64:57:b8:ff:ff:
                    0f:20:94:ba:ea:a2:c2:19:62:14:24:85:f6:95:5f:
                    79:29:91:50:79:72:43:8b:bb:9c:7f:33:42:56:59:
                    60:ed:f4:8f:c8:21:dc:f4:02:67:45:3a:cf:3f:81:
                    b3:68:cf:4d:b1:a0:30:59:55:b3:40:b1:52:a4:6a:
                    ad:ab:ca:54:e5:cc:7e:60:02:60:df:84:45:a1:1a:
                    b1:b1:a5:42:37:f3:6a:8c:4d:3e:10:12:a3:31:6b:
                    54:3b:ab:63:47:ab:98:ec:5d:26:f4:14:9a:55:fc:
                    e8:40:87:6d:de:2d:bf:47:cc:05:2f:2b:fe:3c:a5:
                    90:11:9a:db:be:ef:8f:40:b8:4b:e0:fd:c0:2a:2f:
                    35:ea:36:55:21:89:5c:81:ec:5e:50:f3:22:24:e3:
                    91:33:d1:e2:2d:9c:7b:f3:6c:16:e1:bd:ad:d5:4b:
                    d2:2f:77:ab:9b:5b:4b:fc:8b:1b:86:6d:49:4b:39:
                    3a:90:7c:a1:cc:51:80:f1:37:7a:cb:db:13:fd:ca:
                    e7:f7:4e:f9:fe:0a:ab:23:d9:62:5b:36:7b:d6:de:
                    17:37
                Exponent: 65537 (0x10001)
        X509v3 extensions:
            X509v3 Basic Constraints: 
                CA:FALSE
            Netscape Comment: 
                OpenSSL Generated Certificate
            X509v3 Subject Key Identifier: 
                4B:07:C5:9F:DE:15:AD:36:83:9E:4A:C1:4C:20:18:96:33:8F:84:AE
            X509v3 Authority Key Identifier: 
                keyid:09:2F:AC:7E:33:BF:4E:00:87:EB:5F:3F:01:A8:AC:81:EE:3E:19:26
                DirName:/C=IN/ST=Karnataka/O=Sahi
                serial:D6:8C:78:5C:DF:F5:9E:A3

    Signature Algorithm: sha1WithRSAEncryption
        84:09:be:a5:1f:6e:2a:aa:81:2d:b4:2c:bd:df:a2:cd:c7:e0:
        47:fc:2b:23:c7:44:28:ac:44:d0:44:f3:f3:f6:c0:4d:db:48:
        fd:f1:54:34:bb:ac:66:e7:23:2a:fa:e6:21:db:1c:24:5e:a9:
        6a:0f:dd:cb:ec:e5:8a:93:c1:28:92:eb:39:4a:d6:2a:69:bf:
        0f:47:37:37:73:f6:4b:55:21:32:b7:3c:d8:48:b3:26:13:4f:
        de:5c:c1:15:16:59:d3:f7:f6:6a:b4:6a:7e:1d:0a:85:e4:21:
        b7:ea:5f:35:7b:d3:f4:2d:08:3d:f7:6c:26:1d:c4:52:8b:4c:
        d8:31
-----BEGIN CERTIFICATE-----
MIIDezCCAuSgAwIBAgIBMzANBgkqhkiG9w0BAQUFADAwMQswCQYDVQQGEwJJTjES
MBAGA1UECBMJS2FybmF0YWthMQ0wCwYDVQQKEwRTYWhpMB4XDTE1MDQxMDA0MjUz
M1oXDTI1MDQwNzA0MjUzM1owgZIxCzAJBgNVBAYTAklOMRIwEAYDVQQIEwlLYXJu
YXRha2ExDTALBgNVBAoTBFNhaGkxDTALBgNVBAsTBFNhaGkxUTBPBgNVBAMTSHA1
LXdlYmNlbHFzNmJ0aHMtNGp3bWY0anp4cGRvdXQzeS04MDM2MTQtaTEtdjZleHAz
LWRzLm1ldHJpYy5nc3RhdGljLmNvbTCCASIwDQYJKoZIhvcNAQEBBQADggEPADCC
AQoCggEBAOCEG1TF7G5SkeDNJGscN4Ke9gRq2lJsOX7ll90wGMxFQhbKpg8Vc2RX
uP//DyCUuuqiwhliFCSF9pVfeSmRUHlyQ4u7nH8zQlZZYO30j8gh3PQCZ0U6zz+B
s2jPTbGgMFlVs0CxUqRqravKVOXMfmACYN+ERaEasbGlQjfzaoxNPhASozFrVDur
Y0ermOxdJvQUmlX86ECHbd4tv0fMBS8r/jylkBGa277vj0C4S+D9wCovNeo2VSGJ
XIHsXlDzIiTjkTPR4i2ce/NsFuG9rdVL0i93q5tbS/yLG4ZtSUs5OpB8ocxRgPE3
esvbE/3K5/dO+f4KqyPZYls2e9beFzcCAwEAAaOBvTCBujAJBgNVHRMEAjAAMCwG
CWCGSAGG+EIBDQQfFh1PcGVuU1NMIEdlbmVyYXRlZCBDZXJ0aWZpY2F0ZTAdBgNV
HQ4EFgQUSwfFn94VrTaDnkrBTCAYljOPhK4wYAYDVR0jBFkwV4AUCS+sfjO/TgCH
618/Aaisge4+GSahNKQyMDAxCzAJBgNVBAYTAklOMRIwEAYDVQQIEwlLYXJuYXRh
a2ExDTALBgNVBAoTBFNhaGmCCQDWjHhc3/WeozANBgkqhkiG9w0BAQUFAAOBgQCE
Cb6lH24qqoEttCy936LNx+BH/Csjx0QorETQRPPz9sBN20j98VQ0u6xm5yMq+uYh
2xwkXqlqD93L7OWKk8Eokus5StYqab8PRzc3c/ZLVSEytzzYSLMmE0/eXMEVFlnT
9/ZqtGp+HQqF5CG36l81e9P0LQg992wmHcRSi0zYMQ==
-----END CERTIFICATE-----
