Certificate:
    Data:
        Version: 3 (0x2)
        Serial Number: 52 (0x34)
        Signature Algorithm: sha1WithRSAEncryption
        Issuer: C=IN, ST=Karnataka, O=Sahi
        Validity
            Not Before: Apr 10 04:25:38 2015 GMT
            Not After : Apr  7 04:25:38 2025 GMT
        Subject: C=IN, ST=Karnataka, O=Sahi, OU=Sahi, CN=p5-webcelqs6bths-4jwmf4jzxpdout3y-803614-i2-v6exp3-v4.metric.gstatic.com
        Subject Public Key Info:
            Public Key Algorithm: rsaEncryption
            RSA Public Key: (2048 bit)
                Modulus (2048 bit):
                    00:83:e9:69:64:71:71:7e:16:a0:c6:bf:da:ea:20:
                    09:64:1d:a1:36:2b:60:b4:92:d0:f0:be:2e:28:97:
                    3a:35:dd:b3:df:10:b8:f8:d3:1f:7c:04:96:ad:6e:
                    82:8a:bc:7c:ef:20:8e:1a:07:50:54:ad:6d:b6:9c:
                    ad:33:ba:01:bf:b8:f3:75:41:f3:59:f4:e5:16:83:
                    5b:cb:b6:c2:01:50:eb:2c:44:24:a7:9d:fe:33:32:
                    f6:00:31:c3:bb:c3:39:3d:76:61:c9:2e:0a:33:6a:
                    d6:00:e4:37:84:bb:d9:5f:e2:4c:6a:9f:37:c2:e5:
                    48:6d:0f:14:da:dc:05:4b:3b:8c:54:ea:6a:4b:a4:
                    cc:7b:0f:98:70:a1:9d:a7:77:5c:15:3b:23:7a:30:
                    e4:00:4e:91:b2:e4:0d:9d:97:b5:52:f6:98:f9:88:
                    56:00:b1:d7:39:78:9e:b5:9f:45:c6:2f:39:b4:9c:
                    18:95:b5:89:4c:4f:8d:7d:0a:cb:5b:13:74:08:30:
                    db:a3:f3:3c:ab:49:0b:85:39:d3:0b:80:37:bd:78:
                    d5:60:99:56:91:08:3c:bd:86:a7:1e:45:9d:0d:cf:
                    f1:3f:39:7e:ea:5b:94:2c:3d:fe:94:12:e1:5f:63:
                    be:b1:88:11:2d:7e:c1:d4:6d:1a:2d:77:89:0d:b5:
                    66:e9
                Exponent: 65537 (0x10001)
        X509v3 extensions:
            X509v3 Basic Constraints: 
                CA:FALSE
            Netscape Comment: 
                OpenSSL Generated Certificate
            X509v3 Subject Key Identifier: 
                9F:C7:28:00:46:79:64:79:B3:FD:F7:3E:BF:DF:D0:97:1D:02:B2:AB
            X509v3 Authority Key Identifier: 
                keyid:09:2F:AC:7E:33:BF:4E:00:87:EB:5F:3F:01:A8:AC:81:EE:3E:19:26
                DirName:/C=IN/ST=Karnataka/O=Sahi
                serial:D6:8C:78:5C:DF:F5:9E:A3

    Signature Algorithm: sha1WithRSAEncryption
        ca:f3:88:3e:a2:93:45:39:05:a4:86:68:d5:66:ca:c3:c0:b8:
        06:37:8d:d6:45:43:d9:05:03:ec:56:a2:4d:f3:7d:ae:2e:cb:
        bb:c0:c6:b4:44:a3:67:b8:b4:33:0f:11:07:71:c9:11:e8:e7:
        9b:8c:36:e8:ba:e8:dc:2c:82:04:28:4d:d8:d7:fa:a1:af:e7:
        37:cf:64:d1:e8:89:77:5d:1b:96:93:61:ff:94:a1:b9:8d:02:
        56:0d:fd:cc:ea:f9:19:17:77:71:1f:cd:1b:77:3a:eb:b4:5f:
        6c:77:f5:69:4d:af:d6:e4:97:db:1c:8d:04:da:b1:24:fa:fd:
        c8:d5
-----BEGIN CERTIFICATE-----
MIIDezCCAuSgAwIBAgIBNDANBgkqhkiG9w0BAQUFADAwMQswCQYDVQQGEwJJTjES
MBAGA1UECBMJS2FybmF0YWthMQ0wCwYDVQQKEwRTYWhpMB4XDTE1MDQxMDA0MjUz
OFoXDTI1MDQwNzA0MjUzOFowgZIxCzAJBgNVBAYTAklOMRIwEAYDVQQIEwlLYXJu
YXRha2ExDTALBgNVBAoTBFNhaGkxDTALBgNVBAsTBFNhaGkxUTBPBgNVBAMTSHA1
LXdlYmNlbHFzNmJ0aHMtNGp3bWY0anp4cGRvdXQzeS04MDM2MTQtaTItdjZleHAz
LXY0Lm1ldHJpYy5nc3RhdGljLmNvbTCCASIwDQYJKoZIhvcNAQEBBQADggEPADCC
AQoCggEBAIPpaWRxcX4WoMa/2uogCWQdoTYrYLSS0PC+LiiXOjXds98QuPjTH3wE
lq1ugoq8fO8gjhoHUFStbbacrTO6Ab+483VB81n05RaDW8u2wgFQ6yxEJKed/jMy
9gAxw7vDOT12YckuCjNq1gDkN4S72V/iTGqfN8LlSG0PFNrcBUs7jFTqakukzHsP
mHChnad3XBU7I3ow5ABOkbLkDZ2XtVL2mPmIVgCx1zl4nrWfRcYvObScGJW1iUxP
jX0Ky1sTdAgw26PzPKtJC4U50wuAN7141WCZVpEIPL2Gpx5FnQ3P8T85fupblCw9
/pQS4V9jvrGIES1+wdRtGi13iQ21ZukCAwEAAaOBvTCBujAJBgNVHRMEAjAAMCwG
CWCGSAGG+EIBDQQfFh1PcGVuU1NMIEdlbmVyYXRlZCBDZXJ0aWZpY2F0ZTAdBgNV
HQ4EFgQUn8coAEZ5ZHmz/fc+v9/Qlx0CsqswYAYDVR0jBFkwV4AUCS+sfjO/TgCH
618/Aaisge4+GSahNKQyMDAxCzAJBgNVBAYTAklOMRIwEAYDVQQIEwlLYXJuYXRh
a2ExDTALBgNVBAoTBFNhaGmCCQDWjHhc3/WeozANBgkqhkiG9w0BAQUFAAOBgQDK
84g+opNFOQWkhmjVZsrDwLgGN43WRUPZBQPsVqJN832uLsu7wMa0RKNnuLQzDxEH
cckR6OebjDbouujcLIIEKE3Y1/qhr+c3z2TR6Il3XRuWk2H/lKG5jQJWDf3M6vkZ
F3dxH80bdzrrtF9sd/VpTa/W5JfbHI0E2rEk+v3I1Q==
-----END CERTIFICATE-----
