Certificate:
    Data:
        Version: 3 (0x2)
        Serial Number: 53 (0x35)
        Signature Algorithm: sha1WithRSAEncryption
        Issuer: C=IN, ST=Karnataka, O=Sahi
        Validity
            Not Before: Apr 13 02:06:15 2015 GMT
            Not After : Apr 10 02:06:15 2025 GMT
        Subject: C=IN, ST=Karnataka, O=Sahi, OU=Sahi, CN=pagead2.googlesyndication.com
        Subject Public Key Info:
            Public Key Algorithm: rsaEncryption
            RSA Public Key: (2048 bit)
                Modulus (2048 bit):
                    00:88:7b:9d:52:5d:7c:74:f3:b3:90:c9:8f:6e:0a:
                    60:3c:32:4f:6e:80:54:2c:85:09:2f:bf:53:27:ad:
                    73:62:85:8d:2b:ce:ba:0b:d9:78:f6:65:c0:65:95:
                    9c:b1:0e:7b:8e:73:dd:d8:52:46:aa:c4:d4:b9:fd:
                    d9:23:ff:0e:0d:6f:46:21:10:26:e5:ca:fd:98:0a:
                    22:60:c0:18:22:29:c7:46:3a:ed:42:cb:09:02:eb:
                    43:11:d6:b0:bf:b8:8d:5e:2f:5b:ca:e7:ed:57:5a:
                    af:26:a9:1a:f0:f1:bc:90:dd:c6:7a:51:6a:a4:d4:
                    5a:19:82:30:5d:1e:78:ec:12:93:44:7d:18:e0:9c:
                    2c:89:e7:e5:d6:4c:98:4e:14:95:8e:aa:c9:2c:52:
                    20:06:0d:0c:35:ad:14:9d:36:cd:04:89:64:71:6d:
                    12:ce:f7:78:95:8d:65:14:29:2c:1a:1d:5a:b0:6e:
                    0b:da:24:bd:9a:20:e1:92:98:05:d5:5e:f7:1e:6b:
                    13:5e:47:8f:85:55:ad:c2:f1:94:89:73:95:5f:e7:
                    3e:f4:41:1b:0a:ff:8d:74:30:d6:fe:fc:68:9f:70:
                    6f:66:a1:84:e7:93:35:0a:f1:d7:7f:dc:73:f2:e2:
                    53:c9:41:13:27:15:14:d3:e1:55:f0:86:c9:76:86:
                    50:fd
                Exponent: 65537 (0x10001)
        X509v3 extensions:
            X509v3 Basic Constraints: 
                CA:FALSE
            Netscape Comment: 
                OpenSSL Generated Certificate
            X509v3 Subject Key Identifier: 
                76:C7:25:A4:B7:A2:68:BD:0C:4B:A2:9D:BF:80:F0:AF:FA:19:8E:45
            X509v3 Authority Key Identifier: 
                keyid:09:2F:AC:7E:33:BF:4E:00:87:EB:5F:3F:01:A8:AC:81:EE:3E:19:26
                DirName:/C=IN/ST=Karnataka/O=Sahi
                serial:D6:8C:78:5C:DF:F5:9E:A3

    Signature Algorithm: sha1WithRSAEncryption
        31:29:b0:86:e6:6a:f1:c0:81:20:a4:45:63:f3:fd:c5:22:16:
        6e:01:66:80:f7:20:a7:90:a1:d6:cf:02:ea:c2:5e:b8:0b:73:
        a3:94:d3:0a:cc:63:bc:2e:da:0a:df:e1:2e:01:bf:f0:9b:8b:
        ed:52:6f:77:b0:e2:d3:5a:c9:01:a1:eb:4e:0c:62:b3:29:b2:
        2e:85:3c:27:7d:5c:e0:87:92:ac:28:03:70:7b:a1:1d:c7:04:
        d0:2b:c3:27:d1:a9:88:81:1c:49:05:65:f8:3c:a1:f3:e4:d1:
        02:0c:7b:74:b7:e7:bb:15:a0:2e:25:38:d3:d7:b6:e3:a0:5d:
        2d:85
-----BEGIN CERTIFICATE-----
MIIDTzCCArigAwIBAgIBNTANBgkqhkiG9w0BAQUFADAwMQswCQYDVQQGEwJJTjES
MBAGA1UECBMJS2FybmF0YWthMQ0wCwYDVQQKEwRTYWhpMB4XDTE1MDQxMzAyMDYx
NVoXDTI1MDQxMDAyMDYxNVowZzELMAkGA1UEBhMCSU4xEjAQBgNVBAgTCUthcm5h
dGFrYTENMAsGA1UEChMEU2FoaTENMAsGA1UECxMEU2FoaTEmMCQGA1UEAxMdcGFn
ZWFkMi5nb29nbGVzeW5kaWNhdGlvbi5jb20wggEiMA0GCSqGSIb3DQEBAQUAA4IB
DwAwggEKAoIBAQCIe51SXXx087OQyY9uCmA8Mk9ugFQshQkvv1MnrXNihY0rzroL
2Xj2ZcBllZyxDnuOc93YUkaqxNS5/dkj/w4Nb0YhECblyv2YCiJgwBgiKcdGOu1C
ywkC60MR1rC/uI1eL1vK5+1XWq8mqRrw8byQ3cZ6UWqk1FoZgjBdHnjsEpNEfRjg
nCyJ5+XWTJhOFJWOqsksUiAGDQw1rRSdNs0EiWRxbRLO93iVjWUUKSwaHVqwbgva
JL2aIOGSmAXVXvceaxNeR4+FVa3C8ZSJc5Vf5z70QRsK/410MNb+/GifcG9moYTn
kzUK8dd/3HPy4lPJQRMnFRTT4VXwhsl2hlD9AgMBAAGjgb0wgbowCQYDVR0TBAIw
ADAsBglghkgBhvhCAQ0EHxYdT3BlblNTTCBHZW5lcmF0ZWQgQ2VydGlmaWNhdGUw
HQYDVR0OBBYEFHbHJaS3omi9DEuinb+A8K/6GY5FMGAGA1UdIwRZMFeAFAkvrH4z
v04Ah+tfPwGorIHuPhkmoTSkMjAwMQswCQYDVQQGEwJJTjESMBAGA1UECBMJS2Fy
bmF0YWthMQ0wCwYDVQQKEwRTYWhpggkA1ox4XN/1nqMwDQYJKoZIhvcNAQEFBQAD
gYEAMSmwhuZq8cCBIKRFY/P9xSIWbgFmgPcgp5Ch1s8C6sJeuAtzo5TTCsxjvC7a
Ct/hLgG/8JuL7VJvd7Di01rJAaHrTgxisymyLoU8J31c4IeSrCgDcHuhHccE0CvD
J9GpiIEcSQVl+Dyh8+TRAgx7dLfnuxWgLiU409e246BdLYU=
-----END CERTIFICATE-----
