Certificate:
    Data:
        Version: 3 (0x2)
        Serial Number: 54 (0x36)
        Signature Algorithm: sha1WithRSAEncryption
        Issuer: C=IN, ST=Karnataka, O=Sahi
        Validity
            Not Before: Apr 13 02:06:21 2015 GMT
            Not After : Apr 10 02:06:21 2025 GMT
        Subject: C=IN, ST=Karnataka, O=Sahi, OU=Sahi, CN=tpc.googlesyndication.com
        Subject Public Key Info:
            Public Key Algorithm: rsaEncryption
            RSA Public Key: (2048 bit)
                Modulus (2048 bit):
                    00:8e:26:c7:6f:0b:2f:e1:d1:d3:c2:ae:63:17:3b:
                    4c:1b:a8:eb:4b:60:32:af:9a:42:5b:75:76:9f:31:
                    02:14:1a:a4:fb:c8:b4:67:5d:aa:05:5c:14:07:5b:
                    0b:50:c2:54:0d:0f:98:80:bb:97:71:0b:f4:67:9f:
                    6a:3f:ed:a6:ef:fb:ad:e4:a7:e5:f5:87:e3:59:51:
                    77:68:29:60:8d:45:fa:58:42:a3:eb:5f:32:7a:d6:
                    ad:b3:0a:5d:f0:ce:a2:86:6d:a0:45:52:41:d7:1d:
                    4f:7d:8f:dc:3c:24:e0:db:0d:0c:92:58:9b:19:ce:
                    7e:16:d4:9e:31:43:82:e7:da:98:17:ee:a1:c4:b8:
                    23:cf:b7:0e:67:35:65:41:d7:07:82:85:6d:f6:00:
                    34:15:75:3a:a0:19:2a:6f:af:62:bb:3d:d3:de:ff:
                    78:9e:07:38:9f:58:d5:4c:dc:ed:04:8e:16:a0:28:
                    07:e8:e6:99:be:da:1e:b1:e7:37:d6:8a:9c:61:36:
                    15:b9:da:52:31:6d:47:56:b0:94:80:28:6b:32:df:
                    9d:50:3b:00:d8:cf:e4:4a:f3:12:c6:b2:9d:e7:8e:
                    09:a4:c5:f5:1e:ec:26:c2:e4:f3:b7:fe:68:17:87:
                    9f:3c:86:60:02:1d:a3:cc:d3:e7:51:e1:26:8f:a3:
                    4a:31
                Exponent: 65537 (0x10001)
        X509v3 extensions:
            X509v3 Basic Constraints: 
                CA:FALSE
            Netscape Comment: 
                OpenSSL Generated Certificate
            X509v3 Subject Key Identifier: 
                AB:E8:4D:48:9B:C8:1C:D8:C5:BE:EE:AE:07:32:8E:D9:11:75:BB:94
            X509v3 Authority Key Identifier: 
                keyid:09:2F:AC:7E:33:BF:4E:00:87:EB:5F:3F:01:A8:AC:81:EE:3E:19:26
                DirName:/C=IN/ST=Karnataka/O=Sahi
                serial:D6:8C:78:5C:DF:F5:9E:A3

    Signature Algorithm: sha1WithRSAEncryption
        36:bb:e2:fa:09:00:bf:9e:78:79:f4:81:9b:a6:c0:c0:8a:80:
        f1:03:06:bf:bc:91:8c:17:fd:23:f9:33:91:f8:c1:f0:d9:9e:
        b0:00:06:53:c2:7a:95:61:4b:a7:37:1f:e3:9c:bb:a2:39:0e:
        32:09:1c:60:6c:62:bd:d3:ee:a1:e5:b9:dc:50:1c:0c:79:b0:
        32:74:bf:3f:c1:1a:11:a9:8b:de:d7:4a:fd:ef:71:b4:06:4b:
        b2:9c:08:71:56:49:30:a9:00:39:97:c6:8d:d6:27:1d:1e:4b:
        68:b3:f4:57:8f:4a:87:cd:be:68:3e:b4:ed:e4:f0:bf:58:37:
        1a:ef
-----BEGIN CERTIFICATE-----
MIIDSzCCArSgAwIBAgIBNjANBgkqhkiG9w0BAQUFADAwMQswCQYDVQQGEwJJTjES
MBAGA1UECBMJS2FybmF0YWthMQ0wCwYDVQQKEwRTYWhpMB4XDTE1MDQxMzAyMDYy
MVoXDTI1MDQxMDAyMDYyMVowYzELMAkGA1UEBhMCSU4xEjAQBgNVBAgTCUthcm5h
dGFrYTENMAsGA1UEChMEU2FoaTENMAsGA1UECxMEU2FoaTEiMCAGA1UEAxMZdHBj
Lmdvb2dsZXN5bmRpY2F0aW9uLmNvbTCCASIwDQYJKoZIhvcNAQEBBQADggEPADCC
AQoCggEBAI4mx28LL+HR08KuYxc7TBuo60tgMq+aQlt1dp8xAhQapPvItGddqgVc
FAdbC1DCVA0PmIC7l3EL9Gefaj/tpu/7reSn5fWH41lRd2gpYI1F+lhCo+tfMnrW
rbMKXfDOooZtoEVSQdcdT32P3Dwk4NsNDJJYmxnOfhbUnjFDgufamBfuocS4I8+3
Dmc1ZUHXB4KFbfYANBV1OqAZKm+vYrs9097/eJ4HOJ9Y1Uzc7QSOFqAoB+jmmb7a
HrHnN9aKnGE2FbnaUjFtR1awlIAoazLfnVA7ANjP5ErzEsayneeOCaTF9R7sJsLk
87f+aBeHnzyGYAIdo8zT51HhJo+jSjECAwEAAaOBvTCBujAJBgNVHRMEAjAAMCwG
CWCGSAGG+EIBDQQfFh1PcGVuU1NMIEdlbmVyYXRlZCBDZXJ0aWZpY2F0ZTAdBgNV
HQ4EFgQUq+hNSJvIHNjFvu6uBzKO2RF1u5QwYAYDVR0jBFkwV4AUCS+sfjO/TgCH
618/Aaisge4+GSahNKQyMDAxCzAJBgNVBAYTAklOMRIwEAYDVQQIEwlLYXJuYXRh
a2ExDTALBgNVBAoTBFNhaGmCCQDWjHhc3/WeozANBgkqhkiG9w0BAQUFAAOBgQA2
u+L6CQC/nnh59IGbpsDAioDxAwa/vJGMF/0j+TOR+MHw2Z6wAAZTwnqVYUunNx/j
nLuiOQ4yCRxgbGK90+6h5bncUBwMebAydL8/wRoRqYve10r973G0BkuynAhxVkkw
qQA5l8aN1icdHktos/RXj0qHzb5oPrTt5PC/WDca7w==
-----END CERTIFICATE-----
