Certificate:
    Data:
        Version: 3 (0x2)
        Serial Number: 55 (0x37)
        Signature Algorithm: sha1WithRSAEncryption
        Issuer: C=IN, ST=Karnataka, O=Sahi
        Validity
            Not Before: Apr 14 02:10:28 2015 GMT
            Not After : Apr 11 02:10:28 2025 GMT
        Subject: C=IN, ST=Karnataka, O=Sahi, OU=Sahi, CN=secure.gravatar.com
        Subject Public Key Info:
            Public Key Algorithm: rsaEncryption
            RSA Public Key: (2048 bit)
                Modulus (2048 bit):
                    00:86:f9:2a:34:62:e3:19:c4:e3:fd:fe:71:5e:59:
                    82:c8:63:a4:8c:a3:92:4f:ac:89:a6:40:64:be:65:
                    19:47:0f:5b:94:a6:93:f4:73:66:8e:65:4d:e9:e5:
                    1a:d5:63:45:d7:e9:ba:bb:a3:bf:12:c6:60:de:27:
                    1f:b7:82:42:7d:80:9f:ed:06:bc:a8:ce:58:f2:71:
                    b8:dc:41:08:7d:60:0c:07:19:c5:12:18:a2:83:1f:
                    ac:aa:5e:bb:6c:58:14:da:e3:5b:0c:76:56:fb:b6:
                    ff:b1:86:80:3b:8b:c2:33:5e:c3:6e:8c:31:20:d0:
                    51:2f:ca:4d:72:bf:8c:42:e6:7d:81:3d:87:96:17:
                    fc:c4:92:2e:38:15:cd:d8:10:83:d4:70:ad:53:5c:
                    e1:c5:53:9d:ac:c1:85:2e:c2:3b:1a:e5:cc:c4:34:
                    c0:6a:45:69:df:1c:21:3c:a3:99:37:08:ad:ec:f7:
                    99:50:0d:5f:52:26:7d:ff:1a:04:9a:8c:27:f7:4c:
                    31:ab:85:53:e4:ed:7e:4e:0b:77:e1:cd:30:03:07:
                    a4:41:5a:13:72:8c:8c:93:db:5c:af:8b:4c:f5:30:
                    63:12:c0:47:1c:78:e5:f0:4f:b2:19:ed:ba:57:09:
                    d4:4f:83:ac:d4:1d:57:95:a1:07:8a:f5:0e:c8:a6:
                    87:e7
                Exponent: 65537 (0x10001)
        X509v3 extensions:
            X509v3 Basic Constraints: 
                CA:FALSE
            Netscape Comment: 
                OpenSSL Generated Certificate
            X509v3 Subject Key Identifier: 
                27:EC:06:80:37:6A:C3:3A:DE:E9:6E:3D:2B:06:61:10:34:AE:86:EA
            X509v3 Authority Key Identifier: 
                keyid:09:2F:AC:7E:33:BF:4E:00:87:EB:5F:3F:01:A8:AC:81:EE:3E:19:26
                DirName:/C=IN/ST=Karnataka/O=Sahi
                serial:D6:8C:78:5C:DF:F5:9E:A3

    Signature Algorithm: sha1WithRSAEncryption
        db:6d:32:54:19:6f:3b:5a:53:ba:0b:9a:f6:6c:10:41:06:82:
        46:be:93:58:d6:b0:2e:4a:3f:9f:00:96:11:5d:d8:a5:e9:66:
        73:76:20:5d:0e:f2:2b:69:78:3e:c2:5a:c2:92:52:83:c5:5c:
        6f:18:07:61:8d:7c:41:84:c7:59:47:0d:ea:ab:f2:e9:18:f2:
        9e:05:dd:a8:df:4e:03:23:a1:00:a6:c6:c9:2a:04:9d:d1:67:
        c4:a3:a9:65:86:bd:51:f0:12:4f:2d:d5:40:ee:04:8e:9a:84:
        d5:1f:15:b1:1f:cf:21:f5:ca:bd:55:7d:3d:cc:dd:85:44:5e:
        4d:0a
-----BEGIN CERTIFICATE-----
MIIDRTCCAq6gAwIBAgIBNzANBgkqhkiG9w0BAQUFADAwMQswCQYDVQQGEwJJTjES
MBAGA1UECBMJS2FybmF0YWthMQ0wCwYDVQQKEwRTYWhpMB4XDTE1MDQxNDAyMTAy
OFoXDTI1MDQxMTAyMTAyOFowXTELMAkGA1UEBhMCSU4xEjAQBgNVBAgTCUthcm5h
dGFrYTENMAsGA1UEChMEU2FoaTENMAsGA1UECxMEU2FoaTEcMBoGA1UEAxMTc2Vj
dXJlLmdyYXZhdGFyLmNvbTCCASIwDQYJKoZIhvcNAQEBBQADggEPADCCAQoCggEB
AIb5KjRi4xnE4/3+cV5ZgshjpIyjkk+siaZAZL5lGUcPW5Smk/RzZo5lTenlGtVj
RdfpurujvxLGYN4nH7eCQn2An+0GvKjOWPJxuNxBCH1gDAcZxRIYooMfrKpeu2xY
FNrjWwx2Vvu2/7GGgDuLwjNew26MMSDQUS/KTXK/jELmfYE9h5YX/MSSLjgVzdgQ
g9RwrVNc4cVTnazBhS7COxrlzMQ0wGpFad8cITyjmTcIrez3mVANX1Imff8aBJqM
J/dMMauFU+Ttfk4Ld+HNMAMHpEFaE3KMjJPbXK+LTPUwYxLARxx45fBPshntulcJ
1E+DrNQdV5WhB4r1Dsimh+cCAwEAAaOBvTCBujAJBgNVHRMEAjAAMCwGCWCGSAGG
+EIBDQQfFh1PcGVuU1NMIEdlbmVyYXRlZCBDZXJ0aWZpY2F0ZTAdBgNVHQ4EFgQU
J+wGgDdqwzre6W49KwZhEDSuhuowYAYDVR0jBFkwV4AUCS+sfjO/TgCH618/Aais
ge4+GSahNKQyMDAxCzAJBgNVBAYTAklOMRIwEAYDVQQIEwlLYXJuYXRha2ExDTAL
BgNVBAoTBFNhaGmCCQDWjHhc3/WeozANBgkqhkiG9w0BAQUFAAOBgQDbbTJUGW87
WlO6C5r2bBBBBoJGvpNY1rAuSj+fAJYRXdil6WZzdiBdDvIraXg+wlrCklKDxVxv
GAdhjXxBhMdZRw3qq/LpGPKeBd2o304DI6EApsbJKgSd0WfEo6llhr1R8BJPLdVA
7gSOmoTVHxWxH88h9cq9VX09zN2FRF5NCg==
-----END CERTIFICATE-----
