Certificate:
    Data:
        Version: 3 (0x2)
        Serial Number: 56 (0x38)
        Signature Algorithm: sha1WithRSAEncryption
        Issuer: C=IN, ST=Karnataka, O=Sahi
        Validity
            Not Before: Apr 15 07:19:37 2015 GMT
            Not After : Apr 12 07:19:37 2025 GMT
        Subject: C=IN, ST=Karnataka, O=Sahi, OU=Sahi, CN=p5-jbynvkwqpl24s-m4nvqyeo6pduzthl-172141-i2-v6exp3-ds.metric.gstatic.com
        Subject Public Key Info:
            Public Key Algorithm: rsaEncryption
            RSA Public Key: (2048 bit)
                Modulus (2048 bit):
                    00:ba:95:70:9a:fb:17:39:81:34:bf:19:49:2a:23:
                    36:d2:13:78:ac:04:6d:c2:fb:34:be:21:3e:ee:1a:
                    80:5d:f3:c5:17:50:3a:c6:55:48:83:ae:6c:b8:85:
                    21:36:ff:54:e5:44:0e:7e:1f:31:dc:ab:ad:60:9f:
                    44:03:7c:07:de:d7:39:35:2e:45:a8:ab:40:bc:cd:
                    3e:2d:df:e4:1e:5c:d8:df:ff:97:9d:f5:da:4a:73:
                    dd:90:af:0e:e9:f9:bf:62:b8:fb:fa:c6:7e:e4:11:
                    2b:f5:59:79:6a:20:9c:60:4a:77:5e:dc:a9:96:dd:
                    f8:39:42:9c:2c:cf:9e:e4:f6:28:78:1b:8d:a6:d3:
                    ae:7a:ef:be:a8:bb:61:68:83:02:16:0d:79:ff:31:
                    0d:2d:56:8e:54:be:5b:a6:f6:29:4d:85:e2:b5:79:
                    e4:58:00:a7:79:e0:75:f0:bd:cf:f2:b1:9d:c8:b6:
                    a3:08:fd:56:61:38:3b:53:e7:b6:c6:9b:2c:40:7b:
                    cb:fe:53:a0:bf:ed:51:7e:36:ae:d3:89:a5:06:01:
                    cb:7b:4c:50:6c:eb:d2:0b:d7:87:35:80:17:ce:12:
                    20:94:bb:78:23:d0:7e:2c:56:ec:3e:a8:a4:a1:a1:
                    3c:c6:64:fc:dc:ed:22:0c:5f:b2:6f:0d:43:94:da:
                    c7:d9
                Exponent: 65537 (0x10001)
        X509v3 extensions:
            X509v3 Basic Constraints: 
                CA:FALSE
            Netscape Comment: 
                OpenSSL Generated Certificate
            X509v3 Subject Key Identifier: 
                BD:87:FD:4E:DC:59:E7:69:C3:81:43:7C:7E:76:79:5F:7C:5F:80:76
            X509v3 Authority Key Identifier: 
                keyid:09:2F:AC:7E:33:BF:4E:00:87:EB:5F:3F:01:A8:AC:81:EE:3E:19:26
                DirName:/C=IN/ST=Karnataka/O=Sahi
                serial:D6:8C:78:5C:DF:F5:9E:A3

    Signature Algorithm: sha1WithRSAEncryption
        0f:0b:51:73:be:eb:91:bf:d7:39:7f:de:0f:43:55:eb:ab:ea:
        a1:6b:e0:b1:85:44:91:77:42:6e:15:ab:3b:95:a0:ec:67:d4:
        81:86:92:19:82:09:1d:42:e4:f0:d1:8b:06:9d:1f:cf:23:97:
        11:1c:93:d3:7e:28:e4:e0:32:96:12:ad:08:62:19:a2:b4:91:
        7f:a5:c9:0c:7b:0e:8b:76:5f:93:3f:d6:41:b6:74:f5:75:45:
        b4:4e:8e:a7:14:71:b6:20:f3:db:b5:ad:2e:df:bb:ad:61:e4:
        00:0d:15:a4:ce:fd:d5:42:a8:de:2c:ea:6f:0b:7c:85:54:b1:
        89:b0
-----BEGIN CERTIFICATE-----
MIIDezCCAuSgAwIBAgIBODANBgkqhkiG9w0BAQUFADAwMQswCQYDVQQGEwJJTjES
MBAGA1UECBMJS2FybmF0YWthMQ0wCwYDVQQKEwRTYWhpMB4XDTE1MDQxNTA3MTkz
N1oXDTI1MDQxMjA3MTkzN1owgZIxCzAJBgNVBAYTAklOMRIwEAYDVQQIEwlLYXJu
YXRha2ExDTALBgNVBAoTBFNhaGkxDTALBgNVBAsTBFNhaGkxUTBPBgNVBAMTSHA1
LWpieW52a3dxcGwyNHMtbTRudnF5ZW82cGR1enRobC0xNzIxNDEtaTItdjZleHAz
LWRzLm1ldHJpYy5nc3RhdGljLmNvbTCCASIwDQYJKoZIhvcNAQEBBQADggEPADCC
AQoCggEBALqVcJr7FzmBNL8ZSSojNtITeKwEbcL7NL4hPu4agF3zxRdQOsZVSIOu
bLiFITb/VOVEDn4fMdyrrWCfRAN8B97XOTUuRairQLzNPi3f5B5c2N//l5312kpz
3ZCvDun5v2K4+/rGfuQRK/VZeWognGBKd17cqZbd+DlCnCzPnuT2KHgbjabTrnrv
vqi7YWiDAhYNef8xDS1WjlS+W6b2KU2F4rV55FgAp3ngdfC9z/Kxnci2owj9VmE4
O1PntsabLEB7y/5ToL/tUX42rtOJpQYBy3tMUGzr0gvXhzWAF84SIJS7eCPQfixW
7D6opKGhPMZk/NztIgxfsm8NQ5Tax9kCAwEAAaOBvTCBujAJBgNVHRMEAjAAMCwG
CWCGSAGG+EIBDQQfFh1PcGVuU1NMIEdlbmVyYXRlZCBDZXJ0aWZpY2F0ZTAdBgNV
HQ4EFgQUvYf9TtxZ52nDgUN8fnZ5X3xfgHYwYAYDVR0jBFkwV4AUCS+sfjO/TgCH
618/Aaisge4+GSahNKQyMDAxCzAJBgNVBAYTAklOMRIwEAYDVQQIEwlLYXJuYXRh
a2ExDTALBgNVBAoTBFNhaGmCCQDWjHhc3/WeozANBgkqhkiG9w0BAQUFAAOBgQAP
C1FzvuuRv9c5f94PQ1Xrq+qha+CxhUSRd0JuFas7laDsZ9SBhpIZggkdQuTw0YsG
nR/PI5cRHJPTfijk4DKWEq0IYhmitJF/pckMew6Ldl+TP9ZBtnT1dUW0To6nFHG2
IPPbta0u37utYeQADRWkzv3VQqjeLOpvC3yFVLGJsA==
-----END CERTIFICATE-----
