Certificate:
    Data:
        Version: 3 (0x2)
        Serial Number: 57 (0x39)
        Signature Algorithm: sha1WithRSAEncryption
        Issuer: C=IN, ST=Karnataka, O=Sahi
        Validity
            Not Before: Apr 15 07:19:41 2015 GMT
            Not After : Apr 12 07:19:41 2025 GMT
        Subject: C=IN, ST=Karnataka, O=Sahi, OU=Sahi, CN=p5-jbynvkwqpl24s-m4nvqyeo6pduzthl-172141-i1-v6exp3-v4.metric.gstatic.com
        Subject Public Key Info:
            Public Key Algorithm: rsaEncryption
            RSA Public Key: (2048 bit)
                Modulus (2048 bit):
                    00:8f:fe:54:e6:0c:a9:71:d0:92:e4:bb:f4:0b:1c:
                    ac:9b:08:48:21:41:c2:46:e1:ad:b2:b9:ee:a2:8a:
                    0b:62:10:3a:af:0b:19:58:91:73:7e:56:12:b8:14:
                    9f:36:f1:03:55:48:91:6d:ef:d4:08:0b:7b:c2:01:
                    d4:2b:c8:ae:0b:7e:b1:53:e7:50:6c:6b:a2:45:ca:
                    52:b9:d4:2f:71:b3:5e:eb:9b:d9:ab:94:54:2b:96:
                    c9:82:c4:c5:b0:5a:55:8c:1d:d0:19:e2:0e:f1:00:
                    10:d2:2b:a0:7d:1a:1c:8e:32:ca:f7:27:07:3c:39:
                    46:75:11:3a:e1:9a:d1:43:e0:dd:4e:c5:10:91:56:
                    b5:9f:66:93:bf:8e:72:5e:6e:bd:b8:13:f8:cb:ca:
                    f3:17:a7:80:97:df:f0:ce:f2:e3:12:c8:fd:34:13:
                    51:60:7b:bb:59:1d:ea:91:a9:04:ba:ff:fe:13:61:
                    0b:c1:15:fa:e2:be:86:da:31:13:f6:bc:eb:a6:05:
                    bf:2d:13:85:e8:f6:62:56:1e:2d:3e:3b:51:98:69:
                    df:db:f4:dd:6e:76:b1:98:4d:ea:66:2b:33:4a:75:
                    08:39:54:0f:1c:78:9f:28:ff:18:25:cb:d2:f2:fc:
                    d8:26:ce:93:59:dd:24:d2:7c:7a:71:1e:9d:51:b2:
                    cd:83
                Exponent: 65537 (0x10001)
        X509v3 extensions:
            X509v3 Basic Constraints: 
                CA:FALSE
            Netscape Comment: 
                OpenSSL Generated Certificate
            X509v3 Subject Key Identifier: 
                83:C3:A0:AB:B0:89:3B:CE:05:26:B6:F0:74:05:24:43:AC:36:72:02
            X509v3 Authority Key Identifier: 
                keyid:09:2F:AC:7E:33:BF:4E:00:87:EB:5F:3F:01:A8:AC:81:EE:3E:19:26
                DirName:/C=IN/ST=Karnataka/O=Sahi
                serial:D6:8C:78:5C:DF:F5:9E:A3

    Signature Algorithm: sha1WithRSAEncryption
        d2:a2:2d:b4:92:29:3e:16:ee:e9:e5:69:93:90:f0:dc:c0:3b:
        16:ec:8b:38:b1:17:d1:3c:9e:81:04:02:12:c1:f9:f4:2b:1e:
        6a:16:9e:bc:c4:e3:58:a1:3d:9b:cb:ec:c8:91:91:d4:a6:8f:
        d3:15:1f:b3:26:6b:e6:91:d1:a7:45:d1:54:8c:c7:15:d6:c0:
        0b:53:fa:06:51:31:6e:2c:7c:99:53:50:7d:8e:da:17:83:3a:
        b0:47:e5:af:1e:7a:38:96:d3:23:af:20:ab:39:be:73:ae:f0:
        87:05:df:9e:68:ab:b1:69:44:57:65:8e:e5:10:31:c0:55:40:
        a5:0a
-----BEGIN CERTIFICATE-----
MIIDezCCAuSgAwIBAgIBOTANBgkqhkiG9w0BAQUFADAwMQswCQYDVQQGEwJJTjES
MBAGA1UECBMJS2FybmF0YWthMQ0wCwYDVQQKEwRTYWhpMB4XDTE1MDQxNTA3MTk0
MVoXDTI1MDQxMjA3MTk0MVowgZIxCzAJBgNVBAYTAklOMRIwEAYDVQQIEwlLYXJu
YXRha2ExDTALBgNVBAoTBFNhaGkxDTALBgNVBAsTBFNhaGkxUTBPBgNVBAMTSHA1
LWpieW52a3dxcGwyNHMtbTRudnF5ZW82cGR1enRobC0xNzIxNDEtaTEtdjZleHAz
LXY0Lm1ldHJpYy5nc3RhdGljLmNvbTCCASIwDQYJKoZIhvcNAQEBBQADggEPADCC
AQoCggEBAI/+VOYMqXHQkuS79AscrJsISCFBwkbhrbK57qKKC2IQOq8LGViRc35W
ErgUnzbxA1VIkW3v1AgLe8IB1CvIrgt+sVPnUGxrokXKUrnUL3GzXuub2auUVCuW
yYLExbBaVYwd0BniDvEAENIroH0aHI4yyvcnBzw5RnUROuGa0UPg3U7FEJFWtZ9m
k7+Ocl5uvbgT+MvK8xengJff8M7y4xLI/TQTUWB7u1kd6pGpBLr//hNhC8EV+uK+
htoxE/a866YFvy0Thej2YlYeLT47UZhp39v03W52sZhN6mYrM0p1CDlUDxx4nyj/
GCXL0vL82CbOk1ndJNJ8enEenVGyzYMCAwEAAaOBvTCBujAJBgNVHRMEAjAAMCwG
CWCGSAGG+EIBDQQfFh1PcGVuU1NMIEdlbmVyYXRlZCBDZXJ0aWZpY2F0ZTAdBgNV
HQ4EFgQUg8Ogq7CJO84FJrbwdAUkQ6w2cgIwYAYDVR0jBFkwV4AUCS+sfjO/TgCH
618/Aaisge4+GSahNKQyMDAxCzAJBgNVBAYTAklOMRIwEAYDVQQIEwlLYXJuYXRh
a2ExDTALBgNVBAoTBFNhaGmCCQDWjHhc3/WeozANBgkqhkiG9w0BAQUFAAOBgQDS
oi20kik+Fu7p5WmTkPDcwDsW7Is4sRfRPJ6BBAISwfn0Kx5qFp68xONYoT2by+zI
kZHUpo/TFR+zJmvmkdGnRdFUjMcV1sALU/oGUTFuLHyZU1B9jtoXgzqwR+WvHno4
ltMjryCrOb5zrvCHBd+eaKuxaURXZY7lEDHAVUClCg==
-----END CERTIFICATE-----
