Certificate:
    Data:
        Version: 3 (0x2)
        Serial Number: 58 (0x3a)
        Signature Algorithm: sha1WithRSAEncryption
        Issuer: C=IN, ST=Karnataka, O=Sahi
        Validity
            Not Before: Apr 15 07:20:05 2015 GMT
            Not After : Apr 12 07:20:05 2025 GMT
        Subject: C=IN, ST=Karnataka, O=Sahi, OU=Sahi, CN=p5-jbynvkwqpl24s-m4nvqyeo6pduzthl-172141-s1-v6exp3-v4.metric.gstatic.com
        Subject Public Key Info:
            Public Key Algorithm: rsaEncryption
            RSA Public Key: (2048 bit)
                Modulus (2048 bit):
                    00:88:e1:fb:1f:e3:98:8f:6a:6a:ef:d0:54:4e:9d:
                    fb:71:cf:57:24:d0:15:f7:1c:72:7a:bb:b3:43:cf:
                    33:69:9f:24:5f:d8:3c:f6:7c:5e:df:e2:e0:65:12:
                    ce:82:96:d8:ce:b9:b1:c4:42:16:66:b1:88:59:d0:
                    21:2a:cd:2c:de:c3:8c:38:fc:19:ea:99:cd:8d:6f:
                    fc:39:26:20:29:7e:57:27:a7:38:38:ce:9b:07:eb:
                    72:3e:5f:23:a1:62:3d:7d:69:7b:9c:8b:b9:84:48:
                    55:c2:1c:29:2b:7a:ac:9f:cb:8e:21:a6:9d:d6:f4:
                    9d:3a:56:11:2e:c9:2f:5c:1b:f4:44:4f:83:94:ba:
                    35:7c:1a:c4:5f:72:fc:ed:1e:c4:35:c1:34:25:32:
                    d3:e9:e9:bb:71:0a:c9:bd:e6:61:cf:0e:7f:47:68:
                    03:2c:ec:b3:90:66:4a:6d:3b:a2:dc:9f:c0:cc:b4:
                    98:3f:27:5f:a7:2a:4a:3e:28:37:ad:84:6b:3f:69:
                    a8:36:1e:29:7a:6e:1e:9f:17:ad:d5:43:e3:24:78:
                    c2:9f:46:e1:04:24:17:e3:27:4d:b7:69:f2:0d:4c:
                    93:bc:a4:bf:53:a5:6d:03:cf:96:37:6f:4e:07:05:
                    ca:3b:4f:18:ef:09:79:81:9b:9d:05:50:cb:8d:d0:
                    22:0f
                Exponent: 65537 (0x10001)
        X509v3 extensions:
            X509v3 Basic Constraints: 
                CA:FALSE
            Netscape Comment: 
                OpenSSL Generated Certificate
            X509v3 Subject Key Identifier: 
                D4:99:41:93:AF:E4:62:EE:9F:DB:30:44:14:3C:3B:B8:9C:75:36:55
            X509v3 Authority Key Identifier: 
                keyid:09:2F:AC:7E:33:BF:4E:00:87:EB:5F:3F:01:A8:AC:81:EE:3E:19:26
                DirName:/C=IN/ST=Karnataka/O=Sahi
                serial:D6:8C:78:5C:DF:F5:9E:A3

    Signature Algorithm: sha1WithRSAEncryption
        21:0b:89:dd:f9:61:47:4b:35:42:35:6b:31:c4:a8:06:8b:f8:
        d8:80:2d:04:17:42:1b:5f:a6:ef:59:18:34:42:0d:21:a2:4e:
        60:41:02:dd:ec:8b:39:c0:27:51:5f:24:d8:73:0e:ab:4f:5d:
        14:13:b4:be:3d:69:a4:e8:88:1b:64:b5:35:2b:ed:0b:42:bc:
        1f:1d:3b:57:8c:3b:d2:40:59:7d:8c:f1:30:58:5c:cd:c0:fb:
        1a:4d:ec:7b:7f:d9:22:fd:5f:25:33:bc:3a:9d:6e:b9:22:aa:
        c7:23:b2:c8:b8:2a:ff:86:ad:b5:18:2c:bf:19:30:fd:a3:4e:
        eb:12
-----BEGIN CERTIFICATE-----
MIIDezCCAuSgAwIBAgIBOjANBgkqhkiG9w0BAQUFADAwMQswCQYDVQQGEwJJTjES
MBAGA1UECBMJS2FybmF0YWthMQ0wCwYDVQQKEwRTYWhpMB4XDTE1MDQxNTA3MjAw
NVoXDTI1MDQxMjA3MjAwNVowgZIxCzAJBgNVBAYTAklOMRIwEAYDVQQIEwlLYXJu
YXRha2ExDTALBgNVBAoTBFNhaGkxDTALBgNVBAsTBFNhaGkxUTBPBgNVBAMTSHA1
LWpieW52a3dxcGwyNHMtbTRudnF5ZW82cGR1enRobC0xNzIxNDEtczEtdjZleHAz
LXY0Lm1ldHJpYy5nc3RhdGljLmNvbTCCASIwDQYJKoZIhvcNAQEBBQADggEPADCC
AQoCggEBAIjh+x/jmI9qau/QVE6d+3HPVyTQFfcccnq7s0PPM2mfJF/YPPZ8Xt/i
4GUSzoKW2M65scRCFmaxiFnQISrNLN7DjDj8GeqZzY1v/DkmICl+VyenODjOmwfr
cj5fI6FiPX1pe5yLuYRIVcIcKSt6rJ/LjiGmndb0nTpWES7JL1wb9ERPg5S6NXwa
xF9y/O0exDXBNCUy0+npu3EKyb3mYc8Of0doAyzss5BmSm07otyfwMy0mD8nX6cq
Sj4oN62Eaz9pqDYeKXpuHp8XrdVD4yR4wp9G4QQkF+MnTbdp8g1Mk7ykv1OlbQPP
ljdvTgcFyjtPGO8JeYGbnQVQy43QIg8CAwEAAaOBvTCBujAJBgNVHRMEAjAAMCwG
CWCGSAGG+EIBDQQfFh1PcGVuU1NMIEdlbmVyYXRlZCBDZXJ0aWZpY2F0ZTAdBgNV
HQ4EFgQU1JlBk6/kYu6f2zBEFDw7uJx1NlUwYAYDVR0jBFkwV4AUCS+sfjO/TgCH
618/Aaisge4+GSahNKQyMDAxCzAJBgNVBAYTAklOMRIwEAYDVQQIEwlLYXJuYXRh
a2ExDTALBgNVBAoTBFNhaGmCCQDWjHhc3/WeozANBgkqhkiG9w0BAQUFAAOBgQAh
C4nd+WFHSzVCNWsxxKgGi/jYgC0EF0IbX6bvWRg0Qg0hok5gQQLd7Is5wCdRXyTY
cw6rT10UE7S+PWmk6IgbZLU1K+0LQrwfHTtXjDvSQFl9jPEwWFzNwPsaTex7f9ki
/V8lM7w6nW65IqrHI7LIuCr/hq21GCy/GTD9o07rEg==
-----END CERTIFICATE-----
