Certificate:
    Data:
        Version: 3 (0x2)
        Serial Number: 59 (0x3b)
        Signature Algorithm: sha1WithRSAEncryption
        Issuer: C=IN, ST=Karnataka, O=Sahi
        Validity
            Not Before: Apr 17 02:14:23 2015 GMT
            Not After : Apr 14 02:14:23 2025 GMT
        Subject: C=IN, ST=Karnataka, O=Sahi, OU=Sahi, CN=iecvlist.microsoft.com
        Subject Public Key Info:
            Public Key Algorithm: rsaEncryption
            RSA Public Key: (2048 bit)
                Modulus (2048 bit):
                    00:99:8f:90:a0:ca:17:00:73:2d:49:97:14:c1:29:
                    70:83:cf:4a:4f:a5:86:a5:b6:36:ee:95:ee:9a:bb:
                    d5:11:cd:93:58:1b:68:da:55:1c:d8:bd:7d:1e:67:
                    77:77:80:79:42:70:ee:cb:c2:21:b7:c6:e0:8a:be:
                    f6:b4:ae:6e:de:a6:b4:9d:7f:96:7b:7c:82:ef:f5:
                    79:a9:73:4f:92:cc:e0:82:c9:15:93:bb:8b:ee:bf:
                    59:bf:d5:c4:c6:52:b5:d9:48:a4:c3:be:fc:06:4e:
                    4f:e8:e6:ec:ae:13:03:73:e9:f0:be:52:f9:d0:7d:
                    58:5f:bc:0b:e5:89:cf:07:07:17:55:39:7d:18:15:
                    db:ab:b5:79:ab:a8:47:23:5b:14:c9:e9:c1:41:e8:
                    93:dc:9d:5f:90:f0:61:3b:70:d9:24:25:01:4d:28:
                    ab:b4:c8:36:49:bf:bf:12:1c:fc:04:09:7c:6b:d7:
                    8d:9d:32:a7:7f:92:cb:6f:dc:62:8d:04:94:1c:92:
                    9e:b1:f9:44:b7:5d:aa:2d:64:ea:30:86:db:0c:89:
                    9d:68:3e:79:b3:12:04:91:e1:12:b0:17:91:bc:75:
                    eb:00:16:2d:0a:1a:5e:dc:f2:16:7e:40:4a:03:1e:
                    87:8d:57:93:15:0a:d3:b1:e5:98:fe:cd:84:c6:43:
                    64:b1
                Exponent: 65537 (0x10001)
        X509v3 extensions:
            X509v3 Basic Constraints: 
                CA:FALSE
            Netscape Comment: 
                OpenSSL Generated Certificate
            X509v3 Subject Key Identifier: 
                27:24:37:54:5D:52:33:79:36:46:B5:79:70:2B:4C:D7:4D:BD:40:CF
            X509v3 Authority Key Identifier: 
                keyid:09:2F:AC:7E:33:BF:4E:00:87:EB:5F:3F:01:A8:AC:81:EE:3E:19:26
                DirName:/C=IN/ST=Karnataka/O=Sahi
                serial:D6:8C:78:5C:DF:F5:9E:A3

    Signature Algorithm: sha1WithRSAEncryption
        de:7d:32:a6:c2:7d:80:b7:7e:00:9e:eb:f8:00:e0:cb:05:a8:
        d4:34:19:d0:7b:7e:e6:6f:82:ae:a1:bf:56:09:e2:00:ea:f1:
        37:d6:9d:e0:56:16:35:7d:f8:d3:e2:6c:67:70:8c:b4:43:2a:
        7a:ee:fd:0b:0b:61:b7:d1:55:10:00:a4:87:bf:c5:5b:bd:7f:
        2e:7f:9d:9e:08:44:db:ee:b4:e4:c3:9d:eb:26:db:ea:83:82:
        a6:b0:af:0b:82:f2:98:a8:41:9a:2b:d1:5e:b0:b4:3f:00:2e:
        34:18:9d:1c:54:6b:49:08:50:ce:23:ad:ae:50:c7:89:70:70:
        51:00
-----BEGIN CERTIFICATE-----
MIIDSDCCArGgAwIBAgIBOzANBgkqhkiG9w0BAQUFADAwMQswCQYDVQQGEwJJTjES
MBAGA1UECBMJS2FybmF0YWthMQ0wCwYDVQQKEwRTYWhpMB4XDTE1MDQxNzAyMTQy
M1oXDTI1MDQxNDAyMTQyM1owYDELMAkGA1UEBhMCSU4xEjAQBgNVBAgTCUthcm5h
dGFrYTENMAsGA1UEChMEU2FoaTENMAsGA1UECxMEU2FoaTEfMB0GA1UEAxMWaWVj
dmxpc3QubWljcm9zb2Z0LmNvbTCCASIwDQYJKoZIhvcNAQEBBQADggEPADCCAQoC
ggEBAJmPkKDKFwBzLUmXFMEpcIPPSk+lhqW2Nu6V7pq71RHNk1gbaNpVHNi9fR5n
d3eAeUJw7svCIbfG4Iq+9rSubt6mtJ1/lnt8gu/1ealzT5LM4ILJFZO7i+6/Wb/V
xMZStdlIpMO+/AZOT+jm7K4TA3Pp8L5S+dB9WF+8C+WJzwcHF1U5fRgV26u1eauo
RyNbFMnpwUHok9ydX5DwYTtw2SQlAU0oq7TINkm/vxIc/AQJfGvXjZ0yp3+Sy2/c
Yo0ElBySnrH5RLddqi1k6jCG2wyJnWg+ebMSBJHhErAXkbx16wAWLQoaXtzyFn5A
SgMeh41XkxUK07HlmP7NhMZDZLECAwEAAaOBvTCBujAJBgNVHRMEAjAAMCwGCWCG
SAGG+EIBDQQfFh1PcGVuU1NMIEdlbmVyYXRlZCBDZXJ0aWZpY2F0ZTAdBgNVHQ4E
FgQUJyQ3VF1SM3k2RrV5cCtM1029QM8wYAYDVR0jBFkwV4AUCS+sfjO/TgCH618/
Aaisge4+GSahNKQyMDAxCzAJBgNVBAYTAklOMRIwEAYDVQQIEwlLYXJuYXRha2Ex
DTALBgNVBAoTBFNhaGmCCQDWjHhc3/WeozANBgkqhkiG9w0BAQUFAAOBgQDefTKm
wn2At34Anuv4AODLBajUNBnQe37mb4Kuob9WCeIA6vE31p3gVhY1ffjT4mxncIy0
Qyp67v0LC2G30VUQAKSHv8VbvX8uf52eCETb7rTkw53rJtvqg4KmsK8LgvKYqEGa
K9FesLQ/AC40GJ0cVGtJCFDOI62uUMeJcHBRAA==
-----END CERTIFICATE-----
