Certificate:
    Data:
        Version: 3 (0x2)
        Serial Number: 60 (0x3c)
        Signature Algorithm: sha1WithRSAEncryption
        Issuer: C=IN, ST=Karnataka, O=Sahi
        Validity
            Not Before: Apr 17 02:16:42 2015 GMT
            Not After : Apr 14 02:16:42 2025 GMT
        Subject: C=IN, ST=Karnataka, O=Sahi, OU=Sahi, CN=services.extensionfactory.com
        Subject Public Key Info:
            Public Key Algorithm: rsaEncryption
            RSA Public Key: (2048 bit)
                Modulus (2048 bit):
                    00:8a:d9:28:6c:3b:04:e6:a3:d7:a7:a0:23:ac:f3:
                    80:99:ba:f6:db:3a:8c:53:9d:6b:40:92:eb:76:18:
                    b0:e1:70:3f:c4:90:1c:bc:e0:79:7c:39:60:b0:76:
                    58:6e:fe:7f:3c:a2:1f:d0:29:75:0e:d7:5a:d4:82:
                    0e:39:2a:fb:55:85:f3:c2:b2:b8:13:3f:05:64:78:
                    6e:10:4f:1b:e7:09:6b:97:18:43:ba:41:ab:ea:4f:
                    4f:63:a7:c7:dc:0e:6a:78:76:67:2b:bc:37:56:b4:
                    8d:a2:47:9d:0b:33:f4:20:5a:e8:78:e6:59:2f:ba:
                    0c:e1:4a:0e:fd:6e:1b:65:d6:e6:97:46:8e:2c:1a:
                    76:0a:04:ad:94:ea:7b:ea:b2:8b:21:ea:a7:e4:83:
                    48:45:ea:c1:3e:6d:6d:be:28:63:34:2a:0d:64:90:
                    81:c0:54:ee:e2:38:d9:46:fe:56:18:00:c3:8f:6d:
                    29:d8:0b:82:a3:dd:40:d7:52:d8:65:68:d6:9c:ff:
                    b3:7d:f6:aa:66:48:e7:8a:c3:3f:08:e1:cd:45:12:
                    0f:e6:ea:01:1e:aa:c1:fb:0d:af:84:96:4c:9e:09:
                    ce:23:31:79:fd:31:f5:25:7c:93:75:9c:8d:a9:21:
                    a3:bf:79:dc:6c:ec:34:e2:d3:17:44:66:41:3b:c3:
                    3e:a3
                Exponent: 65537 (0x10001)
        X509v3 extensions:
            X509v3 Basic Constraints: 
                CA:FALSE
            Netscape Comment: 
                OpenSSL Generated Certificate
            X509v3 Subject Key Identifier: 
                FF:55:FD:FB:57:36:0C:09:BF:35:4B:75:2B:8A:C0:E6:00:39:C5:18
            X509v3 Authority Key Identifier: 
                keyid:09:2F:AC:7E:33:BF:4E:00:87:EB:5F:3F:01:A8:AC:81:EE:3E:19:26
                DirName:/C=IN/ST=Karnataka/O=Sahi
                serial:D6:8C:78:5C:DF:F5:9E:A3

    Signature Algorithm: sha1WithRSAEncryption
        b2:37:14:50:96:ab:75:18:22:38:2d:1d:ca:ef:1b:75:a9:a1:
        9f:69:11:35:db:c9:4f:ad:d5:c7:70:f0:36:ea:0a:cf:06:49:
        08:30:8c:88:d7:b1:c0:d9:e0:13:2a:40:4e:73:8d:91:2a:e9:
        90:c8:6e:d8:88:41:46:bd:ba:e2:59:d4:3a:b3:72:67:eb:ad:
        6b:e4:82:0c:35:26:d7:1a:18:75:23:23:c8:e3:c5:ec:a8:ae:
        72:17:3d:65:1d:56:be:77:ca:8b:c2:da:d0:39:6c:56:66:f2:
        a9:01:ab:f6:21:83:b1:a2:98:d4:43:0e:ea:0c:88:b8:cb:8b:
        f6:27
-----BEGIN CERTIFICATE-----
MIIDTzCCArigAwIBAgIBPDANBgkqhkiG9w0BAQUFADAwMQswCQYDVQQGEwJJTjES
MBAGA1UECBMJS2FybmF0YWthMQ0wCwYDVQQKEwRTYWhpMB4XDTE1MDQxNzAyMTY0
MloXDTI1MDQxNDAyMTY0MlowZzELMAkGA1UEBhMCSU4xEjAQBgNVBAgTCUthcm5h
dGFrYTENMAsGA1UEChMEU2FoaTENMAsGA1UECxMEU2FoaTEmMCQGA1UEAxMdc2Vy
dmljZXMuZXh0ZW5zaW9uZmFjdG9yeS5jb20wggEiMA0GCSqGSIb3DQEBAQUAA4IB
DwAwggEKAoIBAQCK2ShsOwTmo9enoCOs84CZuvbbOoxTnWtAkut2GLDhcD/EkBy8
4Hl8OWCwdlhu/n88oh/QKXUO11rUgg45KvtVhfPCsrgTPwVkeG4QTxvnCWuXGEO6
QavqT09jp8fcDmp4dmcrvDdWtI2iR50LM/QgWuh45lkvugzhSg79bhtl1uaXRo4s
GnYKBK2U6nvqsosh6qfkg0hF6sE+bW2+KGM0Kg1kkIHAVO7iONlG/lYYAMOPbSnY
C4Kj3UDXUthlaNac/7N99qpmSOeKwz8I4c1FEg/m6gEeqsH7Da+ElkyeCc4jMXn9
MfUlfJN1nI2pIaO/edxs7DTi0xdEZkE7wz6jAgMBAAGjgb0wgbowCQYDVR0TBAIw
ADAsBglghkgBhvhCAQ0EHxYdT3BlblNTTCBHZW5lcmF0ZWQgQ2VydGlmaWNhdGUw
HQYDVR0OBBYEFP9V/ftXNgwJvzVLdSuKwOYAOcUYMGAGA1UdIwRZMFeAFAkvrH4z
v04Ah+tfPwGorIHuPhkmoTSkMjAwMQswCQYDVQQGEwJJTjESMBAGA1UECBMJS2Fy
bmF0YWthMQ0wCwYDVQQKEwRTYWhpggkA1ox4XN/1nqMwDQYJKoZIhvcNAQEFBQAD
gYEAsjcUUJardRgiOC0dyu8bdamhn2kRNdvJT63Vx3DwNuoKzwZJCDCMiNexwNng
EypATnONkSrpkMhu2IhBRr264lnUOrNyZ+uta+SCDDUm1xoYdSMjyOPF7Kiuchc9
ZR1WvnfKi8La0DlsVmbyqQGr9iGDsaKY1EMO6gyIuMuL9ic=
-----END CERTIFICATE-----
