Certificate:
    Data:
        Version: 3 (0x2)
        Serial Number: 61 (0x3d)
        Signature Algorithm: sha1WithRSAEncryption
        Issuer: C=IN, ST=Karnataka, O=Sahi
        Validity
            Not Before: Apr 17 02:16:50 2015 GMT
            Not After : Apr 14 02:16:50 2025 GMT
        Subject: C=IN, ST=Karnataka, O=Sahi, OU=Sahi, CN=stats.extensionfactory.com
        Subject Public Key Info:
            Public Key Algorithm: rsaEncryption
            RSA Public Key: (2048 bit)
                Modulus (2048 bit):
                    00:99:82:cc:57:c4:c6:6b:d8:b2:11:1c:3c:2d:e5:
                    1b:34:03:6a:e8:cd:21:42:ca:96:c1:4b:de:ae:83:
                    2b:65:65:35:ac:18:f3:19:a7:9f:bb:2b:65:f4:77:
                    a7:6f:4c:dc:ad:a9:32:78:33:8d:3b:74:2b:84:78:
                    67:50:ce:f8:80:fe:87:ef:07:75:b3:b6:f3:65:d2:
                    05:1f:e8:67:a0:8b:b6:f8:f4:2e:55:7f:34:ee:71:
                    20:a3:e9:b2:09:a3:93:91:ef:fb:6f:ed:8c:78:96:
                    59:40:47:4f:88:33:7b:3b:fd:27:f4:66:13:30:a4:
                    0d:e3:d5:9d:d7:bd:f4:d2:3b:2a:41:c8:1f:81:1b:
                    b0:6f:a6:39:45:29:fa:54:d4:a4:a1:cb:24:a2:65:
                    3c:84:ad:2d:ef:44:6d:d6:c4:a0:1a:c1:86:f5:d3:
                    76:fb:9c:a2:e6:61:39:c0:2a:64:ba:87:b3:f6:0c:
                    24:82:9c:2b:bf:5f:3e:1d:61:30:96:ed:97:50:89:
                    e4:19:8f:01:51:95:27:94:a9:fa:6c:04:69:1a:6d:
                    66:c2:13:6e:74:a3:0a:ac:3d:c5:78:d8:39:f3:5f:
                    05:e7:cc:c8:53:85:1e:dd:eb:4e:76:f5:00:8a:b3:
                    db:44:44:55:27:89:47:b1:b0:90:31:8b:c5:54:32:
                    55:e5
                Exponent: 65537 (0x10001)
        X509v3 extensions:
            X509v3 Basic Constraints: 
                CA:FALSE
            Netscape Comment: 
                OpenSSL Generated Certificate
            X509v3 Subject Key Identifier: 
                C4:E3:D5:F4:0B:79:14:92:A6:82:5C:86:D1:C1:BC:A1:5C:AC:79:F5
            X509v3 Authority Key Identifier: 
                keyid:09:2F:AC:7E:33:BF:4E:00:87:EB:5F:3F:01:A8:AC:81:EE:3E:19:26
                DirName:/C=IN/ST=Karnataka/O=Sahi
                serial:D6:8C:78:5C:DF:F5:9E:A3

    Signature Algorithm: sha1WithRSAEncryption
        24:51:cb:37:5b:ab:6f:a0:18:34:43:34:75:24:66:71:e8:da:
        b4:b4:c9:17:4f:2e:9c:b8:8f:44:32:30:64:97:16:46:43:d7:
        64:bd:e2:2b:b8:13:0f:82:71:e4:8c:10:95:08:ad:60:c8:c7:
        30:b9:e2:1f:a9:92:3f:d7:df:f4:75:57:be:29:c9:09:2d:a4:
        e3:5e:60:e2:4a:c6:ae:02:bc:1f:2e:4a:b8:08:68:28:dd:74:
        88:fd:1a:b9:83:f3:15:d3:08:d7:fb:cc:cf:1d:47:7d:a5:ad:
        47:a8:15:f2:de:dd:31:4c:89:f1:53:49:aa:aa:0b:eb:2a:9a:
        f1:1e
-----BEGIN CERTIFICATE-----
MIIDTDCCArWgAwIBAgIBPTANBgkqhkiG9w0BAQUFADAwMQswCQYDVQQGEwJJTjES
MBAGA1UECBMJS2FybmF0YWthMQ0wCwYDVQQKEwRTYWhpMB4XDTE1MDQxNzAyMTY1
MFoXDTI1MDQxNDAyMTY1MFowZDELMAkGA1UEBhMCSU4xEjAQBgNVBAgTCUthcm5h
dGFrYTENMAsGA1UEChMEU2FoaTENMAsGA1UECxMEU2FoaTEjMCEGA1UEAxMac3Rh
dHMuZXh0ZW5zaW9uZmFjdG9yeS5jb20wggEiMA0GCSqGSIb3DQEBAQUAA4IBDwAw
ggEKAoIBAQCZgsxXxMZr2LIRHDwt5Rs0A2rozSFCypbBS96ugytlZTWsGPMZp5+7
K2X0d6dvTNytqTJ4M407dCuEeGdQzviA/ofvB3WztvNl0gUf6Gegi7b49C5VfzTu
cSCj6bIJo5OR7/tv7Yx4lllAR0+IM3s7/Sf0ZhMwpA3j1Z3XvfTSOypByB+BG7Bv
pjlFKfpU1KShyySiZTyErS3vRG3WxKAawYb103b7nKLmYTnAKmS6h7P2DCSCnCu/
Xz4dYTCW7ZdQieQZjwFRlSeUqfpsBGkabWbCE250owqsPcV42DnzXwXnzMhThR7d
60529QCKs9tERFUniUexsJAxi8VUMlXlAgMBAAGjgb0wgbowCQYDVR0TBAIwADAs
BglghkgBhvhCAQ0EHxYdT3BlblNTTCBHZW5lcmF0ZWQgQ2VydGlmaWNhdGUwHQYD
VR0OBBYEFMTj1fQLeRSSpoJchtHBvKFcrHn1MGAGA1UdIwRZMFeAFAkvrH4zv04A
h+tfPwGorIHuPhkmoTSkMjAwMQswCQYDVQQGEwJJTjESMBAGA1UECBMJS2FybmF0
YWthMQ0wCwYDVQQKEwRTYWhpggkA1ox4XN/1nqMwDQYJKoZIhvcNAQEFBQADgYEA
JFHLN1urb6AYNEM0dSRmcejatLTJF08unLiPRDIwZJcWRkPXZL3iK7gTD4Jx5IwQ
lQitYMjHMLniH6mSP9ff9HVXvinJCS2k415g4krGrgK8Hy5KuAhoKN10iP0auYPz
FdMI1/vMzx1HfaWtR6gV8t7dMUyJ8VNJqqoL6yqa8R4=
-----END CERTIFICATE-----
