Certificate:
    Data:
        Version: 3 (0x2)
        Serial Number: 62 (0x3e)
        Signature Algorithm: sha1WithRSAEncryption
        Issuer: C=IN, ST=Karnataka, O=Sahi
        Validity
            Not Before: Apr 17 02:16:54 2015 GMT
            Not After : Apr 14 02:16:54 2025 GMT
        Subject: C=IN, ST=Karnataka, O=Sahi, OU=Sahi, CN=features.extensionfactory.com
        Subject Public Key Info:
            Public Key Algorithm: rsaEncryption
            RSA Public Key: (2048 bit)
                Modulus (2048 bit):
                    00:ba:6e:87:c8:61:27:78:e9:89:e6:ea:37:d9:ee:
                    e8:25:3d:ca:54:56:84:dc:46:94:93:07:bb:cd:0a:
                    a9:c6:b0:7f:33:3c:a3:5f:5f:e6:39:7d:ac:5c:9f:
                    48:04:4c:ca:35:11:03:1a:e7:59:25:97:e1:ae:2e:
                    25:dc:be:3b:40:5d:73:7f:a0:7a:8e:fa:06:3a:fa:
                    59:66:a0:7d:b4:c6:bc:e6:ec:a2:6c:f7:ea:81:0d:
                    cc:1d:05:e7:a2:0e:9f:03:2b:7c:1d:5a:4d:83:22:
                    87:5b:e6:bf:6e:bd:84:94:b6:6a:9f:2b:34:cf:f6:
                    d7:35:cf:e3:80:fb:f2:5b:97:91:a9:a1:07:a4:4c:
                    ea:8e:75:f4:51:bc:9a:70:77:4a:16:75:cf:ac:e9:
                    62:f6:5c:b2:b4:e4:4b:9e:fe:69:dd:30:44:6b:39:
                    aa:3c:45:fa:f9:61:74:29:99:df:12:c5:5b:49:42:
                    2e:c9:a0:73:8f:3e:b0:3a:d6:ac:1e:44:e5:cc:b2:
                    9c:49:20:6a:11:f4:2e:cb:f4:0e:b6:1e:18:32:66:
                    51:db:8d:f6:4f:71:1b:1e:9f:f9:c0:b0:16:30:1c:
                    30:7a:a9:90:29:51:80:0f:e5:f4:15:54:88:6c:da:
                    ad:c7:8c:e4:f6:37:4f:d4:5d:0c:f2:3b:a9:08:cc:
                    06:c5
                Exponent: 65537 (0x10001)
        X509v3 extensions:
            X509v3 Basic Constraints: 
                CA:FALSE
            Netscape Comment: 
                OpenSSL Generated Certificate
            X509v3 Subject Key Identifier: 
                D7:4A:47:27:33:9E:53:8D:B3:92:4B:BB:65:C4:6F:7A:EC:3A:5C:49
            X509v3 Authority Key Identifier: 
                keyid:09:2F:AC:7E:33:BF:4E:00:87:EB:5F:3F:01:A8:AC:81:EE:3E:19:26
                DirName:/C=IN/ST=Karnataka/O=Sahi
                serial:D6:8C:78:5C:DF:F5:9E:A3

    Signature Algorithm: sha1WithRSAEncryption
        09:e8:2e:d3:d4:1e:b0:4c:13:b5:56:df:ad:82:30:63:1b:64:
        63:96:9f:59:54:ad:b2:44:01:0a:b9:ab:5a:8c:d6:a9:8a:87:
        7d:01:6c:31:6a:95:cb:25:76:37:08:d3:93:0f:7c:7c:cf:09:
        77:d0:53:4b:4d:63:13:7a:c0:a9:ab:fd:85:72:28:0f:0c:d1:
        ee:f2:11:b0:3f:cc:d1:12:18:82:90:ae:4f:ba:8a:b0:52:14:
        59:47:52:51:49:36:ca:3a:35:53:98:d4:c7:3d:15:c2:9c:6c:
        bb:c8:3c:ec:a6:e0:66:20:52:94:b2:5d:b8:71:9c:c4:6a:3c:
        62:d6
-----BEGIN CERTIFICATE-----
MIIDTzCCArigAwIBAgIBPjANBgkqhkiG9w0BAQUFADAwMQswCQYDVQQGEwJJTjES
MBAGA1UECBMJS2FybmF0YWthMQ0wCwYDVQQKEwRTYWhpMB4XDTE1MDQxNzAyMTY1
NFoXDTI1MDQxNDAyMTY1NFowZzELMAkGA1UEBhMCSU4xEjAQBgNVBAgTCUthcm5h
dGFrYTENMAsGA1UEChMEU2FoaTENMAsGA1UECxMEU2FoaTEmMCQGA1UEAxMdZmVh
dHVyZXMuZXh0ZW5zaW9uZmFjdG9yeS5jb20wggEiMA0GCSqGSIb3DQEBAQUAA4IB
DwAwggEKAoIBAQC6bofIYSd46Ynm6jfZ7uglPcpUVoTcRpSTB7vNCqnGsH8zPKNf
X+Y5faxcn0gETMo1EQMa51kll+GuLiXcvjtAXXN/oHqO+gY6+llmoH20xrzm7KJs
9+qBDcwdBeeiDp8DK3wdWk2DIodb5r9uvYSUtmqfKzTP9tc1z+OA+/Jbl5GpoQek
TOqOdfRRvJpwd0oWdc+s6WL2XLK05Eue/mndMERrOao8Rfr5YXQpmd8SxVtJQi7J
oHOPPrA61qweROXMspxJIGoR9C7L9A62HhgyZlHbjfZPcRsen/nAsBYwHDB6qZAp
UYAP5fQVVIhs2q3HjOT2N0/UXQzyO6kIzAbFAgMBAAGjgb0wgbowCQYDVR0TBAIw
ADAsBglghkgBhvhCAQ0EHxYdT3BlblNTTCBHZW5lcmF0ZWQgQ2VydGlmaWNhdGUw
HQYDVR0OBBYEFNdKRycznlONs5JLu2XEb3rsOlxJMGAGA1UdIwRZMFeAFAkvrH4z
v04Ah+tfPwGorIHuPhkmoTSkMjAwMQswCQYDVQQGEwJJTjESMBAGA1UECBMJS2Fy
bmF0YWthMQ0wCwYDVQQKEwRTYWhpggkA1ox4XN/1nqMwDQYJKoZIhvcNAQEFBQAD
gYEACegu09QesEwTtVbfrYIwYxtkY5afWVStskQBCrmrWozWqYqHfQFsMWqVyyV2
NwjTkw98fM8Jd9BTS01jE3rAqav9hXIoDwzR7vIRsD/M0RIYgpCuT7qKsFIUWUdS
UUk2yjo1U5jUxz0Vwpxsu8g87KbgZiBSlLJduHGcxGo8YtY=
-----END CERTIFICATE-----
