Certificate:
    Data:
        Version: 3 (0x2)
        Serial Number: 63 (0x3f)
        Signature Algorithm: sha1WithRSAEncryption
        Issuer: C=IN, ST=Karnataka, O=Sahi
        Validity
            Not Before: Apr 17 02:18:24 2015 GMT
            Not After : Apr 14 02:18:24 2025 GMT
        Subject: C=IN, ST=Karnataka, O=Sahi, OU=Sahi, CN=safebrowsing-cache.google.com
        Subject Public Key Info:
            Public Key Algorithm: rsaEncryption
            RSA Public Key: (2048 bit)
                Modulus (2048 bit):
                    00:99:ab:c1:79:bb:f7:05:f9:c3:5e:a2:04:9e:ed:
                    9c:33:cd:83:a0:7e:05:0c:65:57:98:67:b5:6a:f7:
                    bb:a6:20:ce:97:af:56:7b:0b:af:da:a8:02:12:19:
                    27:c7:65:4a:02:f5:f5:4c:9b:05:b1:a6:19:56:b9:
                    08:17:26:4e:ca:1c:46:b9:b5:06:9e:3e:3f:ca:45:
                    33:10:46:d4:be:b6:89:2a:60:d4:3e:ca:b5:21:10:
                    1e:08:a0:f8:ff:9a:97:76:ed:a9:ec:96:2a:41:ef:
                    03:ff:95:bc:a2:5c:bd:dd:4c:db:61:bd:5b:23:6b:
                    4e:2a:64:41:58:7a:05:4f:8f:65:1d:d2:7e:14:ad:
                    13:91:ba:3a:17:63:ea:26:8e:36:53:34:13:33:d3:
                    60:3f:fd:47:8c:c2:77:53:bb:d8:02:6d:ab:dd:c7:
                    30:eb:17:10:80:ef:d4:e3:f7:f4:e4:5d:29:bc:ff:
                    71:8b:b6:ff:9a:25:ac:c6:ee:75:07:e5:8d:d5:60:
                    ed:6c:17:81:9a:12:29:45:4a:2b:4c:70:10:67:e7:
                    1f:e0:34:c8:fc:98:f4:a1:8d:ea:a8:11:0a:7d:b2:
                    83:e3:56:c6:36:d7:ff:b1:ee:be:da:f6:e8:ce:02:
                    30:0d:92:de:12:8d:b8:3a:23:f7:b4:ce:7c:f9:1c:
                    aa:8f
                Exponent: 65537 (0x10001)
        X509v3 extensions:
            X509v3 Basic Constraints: 
                CA:FALSE
            Netscape Comment: 
                OpenSSL Generated Certificate
            X509v3 Subject Key Identifier: 
                3A:CB:C4:23:80:EC:99:D2:A5:76:9B:E6:F4:2F:51:06:D4:1E:9D:C1
            X509v3 Authority Key Identifier: 
                keyid:09:2F:AC:7E:33:BF:4E:00:87:EB:5F:3F:01:A8:AC:81:EE:3E:19:26
                DirName:/C=IN/ST=Karnataka/O=Sahi
                serial:D6:8C:78:5C:DF:F5:9E:A3

    Signature Algorithm: sha1WithRSAEncryption
        88:3a:80:80:03:7f:9d:28:80:82:d5:6d:8d:be:f7:c3:55:1f:
        c7:ac:f2:62:5f:ec:83:7d:d5:ba:56:41:d0:b3:e2:b4:02:3e:
        35:4a:63:85:9d:ce:15:23:ea:a9:7c:db:7c:ae:27:37:dd:8d:
        f9:3c:aa:49:19:eb:2b:ac:6b:88:20:e0:2f:a0:39:d1:df:06:
        1b:5f:35:6f:d0:1b:b0:9f:bb:cb:22:00:89:a6:b1:60:c0:68:
        d2:ea:d2:d4:31:df:b5:b1:a9:7b:d4:7f:29:dc:fd:46:a3:8d:
        4b:29:ef:5e:51:00:af:0b:2c:b4:26:cb:64:e3:e9:a7:ef:4c:
        e4:7b
-----BEGIN CERTIFICATE-----
MIIDTzCCArigAwIBAgIBPzANBgkqhkiG9w0BAQUFADAwMQswCQYDVQQGEwJJTjES
MBAGA1UECBMJS2FybmF0YWthMQ0wCwYDVQQKEwRTYWhpMB4XDTE1MDQxNzAyMTgy
NFoXDTI1MDQxNDAyMTgyNFowZzELMAkGA1UEBhMCSU4xEjAQBgNVBAgTCUthcm5h
dGFrYTENMAsGA1UEChMEU2FoaTENMAsGA1UECxMEU2FoaTEmMCQGA1UEAxMdc2Fm
ZWJyb3dzaW5nLWNhY2hlLmdvb2dsZS5jb20wggEiMA0GCSqGSIb3DQEBAQUAA4IB
DwAwggEKAoIBAQCZq8F5u/cF+cNeogSe7ZwzzYOgfgUMZVeYZ7Vq97umIM6Xr1Z7
C6/aqAISGSfHZUoC9fVMmwWxphlWuQgXJk7KHEa5tQaePj/KRTMQRtS+tokqYNQ+
yrUhEB4IoPj/mpd27anslipB7wP/lbyiXL3dTNthvVsja04qZEFYegVPj2Ud0n4U
rRORujoXY+omjjZTNBMz02A//UeMwndTu9gCbavdxzDrFxCA79Tj9/TkXSm8/3GL
tv+aJazG7nUH5Y3VYO1sF4GaEilFSitMcBBn5x/gNMj8mPShjeqoEQp9soPjVsY2
1/+x7r7a9ujOAjANkt4Sjbg6I/e0znz5HKqPAgMBAAGjgb0wgbowCQYDVR0TBAIw
ADAsBglghkgBhvhCAQ0EHxYdT3BlblNTTCBHZW5lcmF0ZWQgQ2VydGlmaWNhdGUw
HQYDVR0OBBYEFDrLxCOA7JnSpXab5vQvUQbUHp3BMGAGA1UdIwRZMFeAFAkvrH4z
v04Ah+tfPwGorIHuPhkmoTSkMjAwMQswCQYDVQQGEwJJTjESMBAGA1UECBMJS2Fy
bmF0YWthMQ0wCwYDVQQKEwRTYWhpggkA1ox4XN/1nqMwDQYJKoZIhvcNAQEFBQAD
gYEAiDqAgAN/nSiAgtVtjb73w1Ufx6zyYl/sg33VulZB0LPitAI+NUpjhZ3OFSPq
qXzbfK4nN92N+TyqSRnrK6xriCDgL6A50d8GG181b9AbsJ+7yyIAiaaxYMBo0urS
1DHftbGpe9R/Kdz9RqONSynvXlEArwsstCbLZOPpp+9M5Hs=
-----END CERTIFICATE-----
