Certificate:
    Data:
        Version: 3 (0x2)
        Serial Number: 64 (0x40)
        Signature Algorithm: sha1WithRSAEncryption
        Issuer: C=IN, ST=Karnataka, O=Sahi
        Validity
            Not Before: Apr 17 02:20:21 2015 GMT
            Not After : Apr 14 02:20:21 2025 GMT
        Subject: C=IN, ST=Karnataka, O=Sahi, OU=Sahi, CN=aus3.mozilla.org
        Subject Public Key Info:
            Public Key Algorithm: rsaEncryption
            RSA Public Key: (2048 bit)
                Modulus (2048 bit):
                    00:da:ff:f6:f7:b7:9a:48:d6:77:51:38:a0:31:ab:
                    a4:70:29:b1:f5:ed:e9:fe:10:f7:4e:81:84:3f:c8:
                    55:5c:b2:54:e5:41:42:0e:07:e2:bf:4b:60:0f:d5:
                    78:0e:51:7c:d0:3c:13:2d:1a:85:45:39:35:df:17:
                    7c:ab:dc:f1:5a:36:4c:11:a9:09:e7:73:71:5d:a1:
                    fa:0b:53:77:17:cd:ac:d1:cd:bd:9d:a8:21:37:b8:
                    03:c7:f2:73:38:a6:4d:a0:bb:ee:9d:0e:fc:7a:45:
                    dd:97:c9:2a:9f:29:1a:f0:17:a8:3a:22:40:f4:00:
                    f6:9e:f9:5b:2e:6a:e7:d4:fb:7f:6a:88:ec:d2:0e:
                    75:0e:e3:94:6b:bc:5e:cb:1d:b3:47:52:16:c8:e2:
                    5a:5f:96:79:82:c1:72:7a:3b:df:b2:36:42:c8:f4:
                    3a:7b:49:61:3f:4e:49:3d:c1:dd:1d:66:eb:70:6d:
                    0d:37:e8:e8:4a:ad:43:2e:93:63:1b:db:02:e8:be:
                    5d:68:8c:28:50:46:2c:5a:89:76:75:fb:c7:6c:63:
                    b3:e9:e2:a9:8f:e5:e8:36:30:6c:f9:f2:f8:c8:a7:
                    83:f0:76:d9:cb:4a:9e:97:80:01:d9:39:84:7d:47:
                    1b:79:ce:ae:cb:a8:f9:8d:4a:93:60:98:6c:16:94:
                    5d:07
                Exponent: 65537 (0x10001)
        X509v3 extensions:
            X509v3 Basic Constraints: 
                CA:FALSE
            Netscape Comment: 
                OpenSSL Generated Certificate
            X509v3 Subject Key Identifier: 
                5E:94:C0:D3:30:40:D5:5B:62:B3:CB:EA:A9:51:EA:21:13:0A:6D:BA
            X509v3 Authority Key Identifier: 
                keyid:09:2F:AC:7E:33:BF:4E:00:87:EB:5F:3F:01:A8:AC:81:EE:3E:19:26
                DirName:/C=IN/ST=Karnataka/O=Sahi
                serial:D6:8C:78:5C:DF:F5:9E:A3

    Signature Algorithm: sha1WithRSAEncryption
        50:ef:9f:26:cd:f3:1a:c9:3e:f8:d0:ec:db:b4:32:84:1f:9f:
        ca:5b:63:75:9d:77:c2:9d:e9:52:08:82:42:41:8b:84:ba:a4:
        09:7f:bf:95:03:39:b5:11:cf:1c:5b:e3:c3:99:3c:87:c3:65:
        75:83:87:60:f1:45:d3:80:17:54:8a:d0:50:e8:d8:c5:9c:4c:
        ab:50:9b:b4:5d:67:be:d3:1d:cf:7f:51:c4:b1:d4:63:7a:8d:
        00:88:c6:2f:29:72:e7:ff:3e:34:62:57:65:68:8c:ee:0e:d7:
        ed:81:79:7c:cf:67:96:46:a8:77:8f:a1:78:f2:92:c9:29:34:
        63:ff
-----BEGIN CERTIFICATE-----
MIIDQjCCAqugAwIBAgIBQDANBgkqhkiG9w0BAQUFADAwMQswCQYDVQQGEwJJTjES
MBAGA1UECBMJS2FybmF0YWthMQ0wCwYDVQQKEwRTYWhpMB4XDTE1MDQxNzAyMjAy
MVoXDTI1MDQxNDAyMjAyMVowWjELMAkGA1UEBhMCSU4xEjAQBgNVBAgTCUthcm5h
dGFrYTENMAsGA1UEChMEU2FoaTENMAsGA1UECxMEU2FoaTEZMBcGA1UEAxMQYXVz
My5tb3ppbGxhLm9yZzCCASIwDQYJKoZIhvcNAQEBBQADggEPADCCAQoCggEBANr/
9ve3mkjWd1E4oDGrpHApsfXt6f4Q906BhD/IVVyyVOVBQg4H4r9LYA/VeA5RfNA8
Ey0ahUU5Nd8XfKvc8Vo2TBGpCedzcV2h+gtTdxfNrNHNvZ2oITe4A8fyczimTaC7
7p0O/HpF3ZfJKp8pGvAXqDoiQPQA9p75Wy5q59T7f2qI7NIOdQ7jlGu8Xssds0dS
FsjiWl+WeYLBcno737I2Qsj0OntJYT9OST3B3R1m63BtDTfo6EqtQy6TYxvbAui+
XWiMKFBGLFqJdnX7x2xjs+niqY/l6DYwbPny+Ming/B22ctKnpeAAdk5hH1HG3nO
rsuo+Y1Kk2CYbBaUXQcCAwEAAaOBvTCBujAJBgNVHRMEAjAAMCwGCWCGSAGG+EIB
DQQfFh1PcGVuU1NMIEdlbmVyYXRlZCBDZXJ0aWZpY2F0ZTAdBgNVHQ4EFgQUXpTA
0zBA1Vtis8vqqVHqIRMKbbowYAYDVR0jBFkwV4AUCS+sfjO/TgCH618/Aaisge4+
GSahNKQyMDAxCzAJBgNVBAYTAklOMRIwEAYDVQQIEwlLYXJuYXRha2ExDTALBgNV
BAoTBFNhaGmCCQDWjHhc3/WeozANBgkqhkiG9w0BAQUFAAOBgQBQ758mzfMayT74
0OzbtDKEH5/KW2N1nXfCnelSCIJCQYuEuqQJf7+VAzm1Ec8cW+PDmTyHw2V1g4dg
8UXTgBdUitBQ6NjFnEyrUJu0XWe+0x3Pf1HEsdRjeo0AiMYvKXLn/z40YldlaIzu
DtftgXl8z2eWRqh3j6F48pLJKTRj/w==
-----END CERTIFICATE-----
