Certificate:
    Data:
        Version: 3 (0x2)
        Serial Number: 65 (0x41)
        Signature Algorithm: sha1WithRSAEncryption
        Issuer: C=IN, ST=Karnataka, O=Sahi
        Validity
            Not Before: May  5 08:57:48 2015 GMT
            Not After : May  2 08:57:48 2025 GMT
        Subject: C=IN, ST=Karnataka, O=Sahi, OU=Sahi, CN=api.skype.com
        Subject Public Key Info:
            Public Key Algorithm: rsaEncryption
            RSA Public Key: (2048 bit)
                Modulus (2048 bit):
                    00:80:4b:5e:ca:f2:1b:a0:ff:a2:d6:c0:ff:0c:5a:
                    11:91:20:4b:d1:f7:7e:b8:c0:e8:95:df:b3:eb:14:
                    b8:f2:66:21:89:5b:ef:24:a3:d5:7e:99:ae:38:0e:
                    58:7b:9c:de:8a:36:c8:d9:30:15:54:f9:26:4b:0c:
                    a5:a0:ac:4d:c0:59:dd:90:71:f3:62:50:f0:d1:15:
                    be:0b:68:15:95:cc:f1:6b:5e:6f:6c:72:62:be:71:
                    f3:72:5f:e2:75:99:d0:8f:a1:cf:8f:d7:51:ef:34:
                    a4:ad:0d:ce:ff:42:9c:7c:67:4c:cf:d2:48:1b:71:
                    95:92:95:c1:f3:37:d4:ae:64:69:e6:68:c2:12:84:
                    8e:4e:61:47:d3:d5:c0:f8:9f:83:4b:d5:5c:b6:ed:
                    65:60:a0:51:53:98:94:6d:3b:73:c4:32:3f:da:0b:
                    d3:88:2b:38:51:6e:8d:09:4a:44:ad:b6:cd:16:95:
                    03:3c:89:0a:1d:18:6c:bb:da:81:a8:07:79:f5:0f:
                    03:22:3f:b6:f1:9a:94:62:6d:41:6e:fe:9f:47:99:
                    12:db:01:f0:4a:59:08:4d:e8:0a:a0:fc:e5:15:65:
                    7b:98:7f:59:d6:a7:77:fc:eb:6a:56:f1:27:60:00:
                    35:73:de:07:6a:ca:2b:3b:07:68:84:ec:c0:fd:8b:
                    be:29
                Exponent: 65537 (0x10001)
        X509v3 extensions:
            X509v3 Basic Constraints: 
                CA:FALSE
            Netscape Comment: 
                OpenSSL Generated Certificate
            X509v3 Subject Key Identifier: 
                08:DB:22:26:A7:BD:F7:5E:F5:10:B4:57:1E:A9:67:E2:56:BA:97:76
            X509v3 Authority Key Identifier: 
                keyid:09:2F:AC:7E:33:BF:4E:00:87:EB:5F:3F:01:A8:AC:81:EE:3E:19:26
                DirName:/C=IN/ST=Karnataka/O=Sahi
                serial:D6:8C:78:5C:DF:F5:9E:A3

    Signature Algorithm: sha1WithRSAEncryption
        c9:fd:88:08:cc:b6:e6:ad:b1:d4:ee:4d:2a:ba:71:79:63:b2:
        62:f9:8c:94:2b:a2:b2:28:db:98:d1:a0:9d:8f:4f:0c:16:d1:
        2e:e2:ec:4c:0c:0e:a9:45:f5:25:4c:17:d8:30:32:4c:b4:4e:
        1b:99:96:51:8b:75:76:24:96:65:c0:58:16:23:f6:c6:ac:74:
        35:7b:e4:c8:0c:d4:6a:bd:4d:51:c4:a1:f4:4e:9d:aa:28:c6:
        68:80:7a:c6:37:49:5e:71:91:e3:f7:ee:b1:f9:88:84:0a:93:
        d1:f9:29:65:90:f6:1a:b7:10:ed:cd:46:1e:e0:b6:9b:69:ca:
        c3:28
-----BEGIN CERTIFICATE-----
MIIDPzCCAqigAwIBAgIBQTANBgkqhkiG9w0BAQUFADAwMQswCQYDVQQGEwJJTjES
MBAGA1UECBMJS2FybmF0YWthMQ0wCwYDVQQKEwRTYWhpMB4XDTE1MDUwNTA4NTc0
OFoXDTI1MDUwMjA4NTc0OFowVzELMAkGA1UEBhMCSU4xEjAQBgNVBAgTCUthcm5h
dGFrYTENMAsGA1UEChMEU2FoaTENMAsGA1UECxMEU2FoaTEWMBQGA1UEAxMNYXBp
LnNreXBlLmNvbTCCASIwDQYJKoZIhvcNAQEBBQADggEPADCCAQoCggEBAIBLXsry
G6D/otbA/wxaEZEgS9H3frjA6JXfs+sUuPJmIYlb7ySj1X6ZrjgOWHuc3oo2yNkw
FVT5JksMpaCsTcBZ3ZBx82JQ8NEVvgtoFZXM8Wteb2xyYr5x83Jf4nWZ0I+hz4/X
Ue80pK0Nzv9CnHxnTM/SSBtxlZKVwfM31K5kaeZowhKEjk5hR9PVwPifg0vVXLbt
ZWCgUVOYlG07c8QyP9oL04grOFFujQlKRK22zRaVAzyJCh0YbLvagagHefUPAyI/
tvGalGJtQW7+n0eZEtsB8EpZCE3oCqD85RVle5h/Wdand/zralbxJ2AANXPeB2rK
KzsHaITswP2LvikCAwEAAaOBvTCBujAJBgNVHRMEAjAAMCwGCWCGSAGG+EIBDQQf
Fh1PcGVuU1NMIEdlbmVyYXRlZCBDZXJ0aWZpY2F0ZTAdBgNVHQ4EFgQUCNsiJqe9
9171ELRXHqln4la6l3YwYAYDVR0jBFkwV4AUCS+sfjO/TgCH618/Aaisge4+GSah
NKQyMDAxCzAJBgNVBAYTAklOMRIwEAYDVQQIEwlLYXJuYXRha2ExDTALBgNVBAoT
BFNhaGmCCQDWjHhc3/WeozANBgkqhkiG9w0BAQUFAAOBgQDJ/YgIzLbmrbHU7k0q
unF5Y7Ji+YyUK6KyKNuY0aCdj08MFtEu4uxMDA6pRfUlTBfYMDJMtE4bmZZRi3V2
JJZlwFgWI/bGrHQ1e+TIDNRqvU1RxKH0Tp2qKMZogHrGN0lecZHj9+6x+YiECpPR
+SllkPYatxDtzUYe4LabacrDKA==
-----END CERTIFICATE-----
