Certificate:
    Data:
        Version: 3 (0x2)
        Serial Number: 66 (0x42)
        Signature Algorithm: sha1WithRSAEncryption
        Issuer: C=IN, ST=Karnataka, O=Sahi
        Validity
            Not Before: May  5 08:57:50 2015 GMT
            Not After : May  2 08:57:50 2025 GMT
        Subject: C=IN, ST=Karnataka, O=Sahi, OU=Sahi, CN=api.trap.skype.net
        Subject Public Key Info:
            Public Key Algorithm: rsaEncryption
            RSA Public Key: (2048 bit)
                Modulus (2048 bit):
                    00:cc:85:e9:52:11:fd:7f:0d:43:71:97:9b:c4:a6:
                    3c:fc:4c:b0:f6:c3:a9:21:61:13:9c:9c:13:4b:89:
                    c4:2d:1d:48:13:9a:29:2a:2e:36:63:59:16:9e:ea:
                    b4:e6:e2:8b:74:35:4c:d1:f8:28:22:8f:4b:23:ef:
                    31:46:e8:70:74:4f:31:56:82:36:ff:fb:6d:87:03:
                    3e:6f:4d:92:2d:59:d8:ad:4c:b0:16:64:94:dd:b5:
                    1d:ae:98:12:97:ad:47:58:56:9e:f4:b0:67:9c:fa:
                    c4:34:84:88:dc:12:2c:38:62:c7:9a:73:d5:39:77:
                    8f:75:34:8c:d0:ef:40:45:9c:ab:de:e6:5e:c3:22:
                    80:35:b3:0d:5e:a2:7e:72:24:54:c5:39:aa:9d:ba:
                    6d:72:b2:e0:ea:1f:af:56:38:d3:e6:f6:7e:44:02:
                    dc:d7:24:f9:e1:94:f4:6b:c3:24:aa:b1:1f:3d:15:
                    cd:f7:8d:6e:ba:e3:fe:e6:90:ed:29:78:44:c7:2f:
                    f7:f1:63:43:f2:25:c5:63:ef:a2:56:6d:78:66:ac:
                    2a:65:e5:6c:46:ff:5e:fd:de:72:b1:00:71:59:a0:
                    bf:fa:14:c7:b6:fa:c1:df:9a:20:1e:cf:5b:48:10:
                    cf:61:77:89:31:63:ee:c3:eb:c7:13:07:86:33:a1:
                    c3:e9
                Exponent: 65537 (0x10001)
        X509v3 extensions:
            X509v3 Basic Constraints: 
                CA:FALSE
            Netscape Comment: 
                OpenSSL Generated Certificate
            X509v3 Subject Key Identifier: 
                1C:C5:50:E6:25:8A:5F:41:FC:F5:70:E9:C9:C0:D2:51:12:83:88:D1
            X509v3 Authority Key Identifier: 
                keyid:09:2F:AC:7E:33:BF:4E:00:87:EB:5F:3F:01:A8:AC:81:EE:3E:19:26
                DirName:/C=IN/ST=Karnataka/O=Sahi
                serial:D6:8C:78:5C:DF:F5:9E:A3

    Signature Algorithm: sha1WithRSAEncryption
        9e:e2:73:82:27:8a:69:2e:de:30:ee:73:ed:b5:a4:02:8a:6d:
        a1:30:85:60:04:16:c4:0c:b3:43:37:ec:ce:56:7b:ea:8a:47:
        32:6c:69:68:4a:61:6d:03:04:50:0c:87:e5:79:76:20:ce:34:
        11:55:1f:f5:7f:0c:59:78:49:ee:51:3f:b1:d2:ac:88:e5:ea:
        97:34:7e:ca:15:95:53:1b:9f:c2:de:45:d9:09:08:8e:70:88:
        f9:a1:23:6d:8f:8b:39:3d:83:b7:50:29:91:1a:7b:b8:7d:d0:
        86:6a:d5:d9:dd:86:0d:96:83:92:db:c5:49:50:ef:28:56:20:
        c6:76
-----BEGIN CERTIFICATE-----
MIIDRDCCAq2gAwIBAgIBQjANBgkqhkiG9w0BAQUFADAwMQswCQYDVQQGEwJJTjES
MBAGA1UECBMJS2FybmF0YWthMQ0wCwYDVQQKEwRTYWhpMB4XDTE1MDUwNTA4NTc1
MFoXDTI1MDUwMjA4NTc1MFowXDELMAkGA1UEBhMCSU4xEjAQBgNVBAgTCUthcm5h
dGFrYTENMAsGA1UEChMEU2FoaTENMAsGA1UECxMEU2FoaTEbMBkGA1UEAxMSYXBp
LnRyYXAuc2t5cGUubmV0MIIBIjANBgkqhkiG9w0BAQEFAAOCAQ8AMIIBCgKCAQEA
zIXpUhH9fw1DcZebxKY8/Eyw9sOpIWETnJwTS4nELR1IE5opKi42Y1kWnuq05uKL
dDVM0fgoIo9LI+8xRuhwdE8xVoI2//tthwM+b02SLVnYrUywFmSU3bUdrpgSl61H
WFae9LBnnPrENISI3BIsOGLHmnPVOXePdTSM0O9ARZyr3uZewyKANbMNXqJ+ciRU
xTmqnbptcrLg6h+vVjjT5vZ+RALc1yT54ZT0a8MkqrEfPRXN941uuuP+5pDtKXhE
xy/38WND8iXFY++iVm14ZqwqZeVsRv9e/d5ysQBxWaC/+hTHtvrB35ogHs9bSBDP
YXeJMWPuw+vHEweGM6HD6QIDAQABo4G9MIG6MAkGA1UdEwQCMAAwLAYJYIZIAYb4
QgENBB8WHU9wZW5TU0wgR2VuZXJhdGVkIENlcnRpZmljYXRlMB0GA1UdDgQWBBQc
xVDmJYpfQfz1cOnJwNJREoOI0TBgBgNVHSMEWTBXgBQJL6x+M79OAIfrXz8BqKyB
7j4ZJqE0pDIwMDELMAkGA1UEBhMCSU4xEjAQBgNVBAgTCUthcm5hdGFrYTENMAsG
A1UEChMEU2FoaYIJANaMeFzf9Z6jMA0GCSqGSIb3DQEBBQUAA4GBAJ7ic4Inimku
3jDuc+21pAKKbaEwhWAEFsQMs0M37M5We+qKRzJsaWhKYW0DBFAMh+V5diDONBFV
H/V/DFl4Se5RP7HSrIjl6pc0fsoVlVMbn8LeRdkJCI5wiPmhI22Pizk9g7dQKZEa
e7h90IZq1dndhg2Wg5LbxUlQ7yhWIMZ2
-----END CERTIFICATE-----
