Certificate:
    Data:
        Version: 3 (0x2)
        Serial Number: 67 (0x43)
        Signature Algorithm: sha1WithRSAEncryption
        Issuer: C=IN, ST=Karnataka, O=Sahi
        Validity
            Not Before: May  5 08:58:15 2015 GMT
            Not After : May  2 08:58:15 2025 GMT
        Subject: C=IN, ST=Karnataka, O=Sahi, OU=Sahi, CN=a.config.skype.com
        Subject Public Key Info:
            Public Key Algorithm: rsaEncryption
            RSA Public Key: (2048 bit)
                Modulus (2048 bit):
                    00:f4:0a:01:66:a8:2d:77:01:44:ae:73:21:78:73:
                    f9:de:26:3a:87:31:1a:16:8f:da:57:af:13:1b:32:
                    94:a2:6f:03:cd:b1:11:77:5d:5e:d1:22:d4:b5:e0:
                    75:ff:0f:78:43:c2:2d:e6:12:96:0e:95:14:5b:8a:
                    df:ea:c5:5f:26:6a:3d:10:c3:a4:53:5c:49:de:ba:
                    f4:4b:40:4c:fe:f9:7e:05:73:84:5e:a8:0c:33:b7:
                    27:b3:a0:56:1c:07:54:0c:da:bb:3e:4f:24:00:a9:
                    6c:f4:52:df:f1:3d:51:02:b2:71:6e:32:c7:e4:8d:
                    ae:ec:0f:5b:d6:cf:e9:f7:86:fa:6d:e7:5e:79:fc:
                    f7:a8:41:9a:aa:60:c3:3c:c7:55:98:0e:54:39:61:
                    4e:90:63:94:f9:69:ec:43:e2:a0:58:79:bd:70:62:
                    25:64:ee:27:96:bb:44:d9:18:35:9d:b3:cd:8b:46:
                    b8:60:02:05:29:dc:e4:5d:b8:d6:8d:84:7d:92:1e:
                    6c:fb:ba:a1:49:27:af:3e:8c:68:02:a6:00:3c:af:
                    fd:97:74:85:84:21:c0:36:e5:da:5d:a5:5e:26:11:
                    fb:20:cc:44:47:8f:b7:85:50:73:a4:35:c3:4c:eb:
                    68:cb:e0:84:7f:80:69:70:3c:72:b3:da:30:c1:aa:
                    83:cf
                Exponent: 65537 (0x10001)
        X509v3 extensions:
            X509v3 Basic Constraints: 
                CA:FALSE
            Netscape Comment: 
                OpenSSL Generated Certificate
            X509v3 Subject Key Identifier: 
                60:97:59:98:1F:03:30:4C:38:DB:BF:9B:8B:69:A2:21:58:70:03:D2
            X509v3 Authority Key Identifier: 
                keyid:09:2F:AC:7E:33:BF:4E:00:87:EB:5F:3F:01:A8:AC:81:EE:3E:19:26
                DirName:/C=IN/ST=Karnataka/O=Sahi
                serial:D6:8C:78:5C:DF:F5:9E:A3

    Signature Algorithm: sha1WithRSAEncryption
        20:fe:d3:df:3d:d2:6f:b6:06:90:04:a1:d3:92:2f:4c:f9:25:
        d9:ac:41:77:a6:1b:38:23:cd:a3:c3:3e:44:cc:b9:e1:3a:b6:
        c1:e1:a1:9b:52:71:79:ad:a4:96:f0:26:24:df:32:b0:f0:7e:
        06:4c:e7:1d:7f:dc:81:c5:65:c3:2b:67:1d:0e:aa:a7:d1:43:
        24:da:80:dd:ae:a1:43:e0:23:a0:3a:7a:c3:54:86:8f:26:51:
        d3:4d:2e:13:03:df:25:ef:e6:59:f3:df:9a:d9:be:1c:97:dd:
        39:1a:d8:59:94:c9:72:75:b6:22:3f:83:b4:fd:85:15:37:eb:
        19:64
-----BEGIN CERTIFICATE-----
MIIDRDCCAq2gAwIBAgIBQzANBgkqhkiG9w0BAQUFADAwMQswCQYDVQQGEwJJTjES
MBAGA1UECBMJS2FybmF0YWthMQ0wCwYDVQQKEwRTYWhpMB4XDTE1MDUwNTA4NTgx
NVoXDTI1MDUwMjA4NTgxNVowXDELMAkGA1UEBhMCSU4xEjAQBgNVBAgTCUthcm5h
dGFrYTENMAsGA1UEChMEU2FoaTENMAsGA1UECxMEU2FoaTEbMBkGA1UEAxMSYS5j
b25maWcuc2t5cGUuY29tMIIBIjANBgkqhkiG9w0BAQEFAAOCAQ8AMIIBCgKCAQEA
9AoBZqgtdwFErnMheHP53iY6hzEaFo/aV68TGzKUom8DzbERd11e0SLUteB1/w94
Q8It5hKWDpUUW4rf6sVfJmo9EMOkU1xJ3rr0S0BM/vl+BXOEXqgMM7cns6BWHAdU
DNq7Pk8kAKls9FLf8T1RArJxbjLH5I2u7A9b1s/p94b6bedeefz3qEGaqmDDPMdV
mA5UOWFOkGOU+WnsQ+KgWHm9cGIlZO4nlrtE2Rg1nbPNi0a4YAIFKdzkXbjWjYR9
kh5s+7qhSSevPoxoAqYAPK/9l3SFhCHANuXaXaVeJhH7IMxER4+3hVBzpDXDTOto
y+CEf4BpcDxys9owwaqDzwIDAQABo4G9MIG6MAkGA1UdEwQCMAAwLAYJYIZIAYb4
QgENBB8WHU9wZW5TU0wgR2VuZXJhdGVkIENlcnRpZmljYXRlMB0GA1UdDgQWBBRg
l1mYHwMwTDjbv5uLaaIhWHAD0jBgBgNVHSMEWTBXgBQJL6x+M79OAIfrXz8BqKyB
7j4ZJqE0pDIwMDELMAkGA1UEBhMCSU4xEjAQBgNVBAgTCUthcm5hdGFrYTENMAsG
A1UEChMEU2FoaYIJANaMeFzf9Z6jMA0GCSqGSIb3DQEBBQUAA4GBACD+09890m+2
BpAEodOSL0z5JdmsQXemGzgjzaPDPkTMueE6tsHhoZtScXmtpJbwJiTfMrDwfgZM
5x1/3IHFZcMrZx0OqqfRQyTagN2uoUPgI6A6esNUho8mUdNNLhMD3yXv5lnz35rZ
vhyX3Tka2FmUyXJ1tiI/g7T9hRU36xlk
-----END CERTIFICATE-----
