Certificate:
    Data:
        Version: 3 (0x2)
        Serial Number: 68 (0x44)
        Signature Algorithm: sha1WithRSAEncryption
        Issuer: C=IN, ST=Karnataka, O=Sahi
        Validity
            Not Before: May  5 08:58:19 2015 GMT
            Not After : May  2 08:58:19 2025 GMT
        Subject: C=IN, ST=Karnataka, O=Sahi, OU=Sahi, CN=pipe.skype.com
        Subject Public Key Info:
            Public Key Algorithm: rsaEncryption
            RSA Public Key: (2048 bit)
                Modulus (2048 bit):
                    00:9a:90:94:74:df:36:b9:23:0e:2e:1e:f2:9c:d2:
                    e1:b6:16:39:50:1c:1c:e9:e3:19:46:02:b3:ad:e7:
                    d4:5a:0a:d8:2d:3d:66:83:55:62:d9:cc:1d:7a:49:
                    0a:b4:6b:d5:d4:c5:93:e7:df:e6:ff:f4:eb:4f:d6:
                    30:64:85:a5:5f:26:af:7d:51:58:df:9d:da:f8:d1:
                    40:62:37:4b:d4:86:5d:50:61:29:24:d9:2e:0d:38:
                    ac:a2:f6:1c:18:33:84:8e:aa:72:58:8a:b3:b8:28:
                    36:49:f2:ed:23:1e:61:bd:62:7e:92:3f:43:90:2b:
                    27:1e:0f:de:c4:8c:d6:b1:1f:44:e0:3f:56:c4:6e:
                    1a:94:24:17:b6:09:8f:e1:b8:70:8b:9f:f3:e8:1f:
                    07:cd:c4:e7:a6:b5:0e:30:35:a5:53:fd:32:79:07:
                    ef:81:b4:b7:01:41:0d:a3:da:24:90:19:2e:11:90:
                    23:a6:ed:d7:52:26:8f:0d:6c:1b:d4:7f:b6:d0:ad:
                    ce:b5:87:af:73:40:2b:b2:1e:42:c8:5e:b6:b9:8d:
                    73:18:29:d3:37:fc:a0:15:6a:f9:e1:64:07:f2:1b:
                    04:00:3c:5f:8a:54:8b:a5:c9:50:b9:a6:b8:75:7a:
                    41:2a:7a:e0:ac:b4:c5:dc:68:80:bb:02:a2:3f:27:
                    9b:27
                Exponent: 65537 (0x10001)
        X509v3 extensions:
            X509v3 Basic Constraints: 
                CA:FALSE
            Netscape Comment: 
                OpenSSL Generated Certificate
            X509v3 Subject Key Identifier: 
                A5:29:D2:3B:9F:76:64:C9:54:88:27:3B:E5:51:0E:9A:FB:8A:7B:98
            X509v3 Authority Key Identifier: 
                keyid:09:2F:AC:7E:33:BF:4E:00:87:EB:5F:3F:01:A8:AC:81:EE:3E:19:26
                DirName:/C=IN/ST=Karnataka/O=Sahi
                serial:D6:8C:78:5C:DF:F5:9E:A3

    Signature Algorithm: sha1WithRSAEncryption
        12:ad:06:30:e0:98:fd:b4:3d:46:51:6f:d0:08:f4:25:f3:62:
        c8:4a:e9:e0:39:bb:33:e2:39:93:fa:27:3c:be:b0:c2:e1:3e:
        c3:15:4c:6f:6d:63:6e:1d:f5:2a:bf:d5:60:9f:1b:be:75:89:
        eb:54:28:8f:d6:a1:0c:b1:b5:5a:32:94:23:df:79:08:44:01:
        cc:b4:d2:79:0e:51:c0:bf:cd:c2:c4:00:dc:0f:4b:f7:d1:d2:
        51:70:87:a4:66:b1:37:51:3c:70:06:17:4e:a2:45:24:f1:86:
        e3:51:35:25:dd:df:fa:6d:af:ae:63:6c:47:5c:c6:f3:48:9e:
        0c:10
-----BEGIN CERTIFICATE-----
MIIDQDCCAqmgAwIBAgIBRDANBgkqhkiG9w0BAQUFADAwMQswCQYDVQQGEwJJTjES
MBAGA1UECBMJS2FybmF0YWthMQ0wCwYDVQQKEwRTYWhpMB4XDTE1MDUwNTA4NTgx
OVoXDTI1MDUwMjA4NTgxOVowWDELMAkGA1UEBhMCSU4xEjAQBgNVBAgTCUthcm5h
dGFrYTENMAsGA1UEChMEU2FoaTENMAsGA1UECxMEU2FoaTEXMBUGA1UEAxMOcGlw
ZS5za3lwZS5jb20wggEiMA0GCSqGSIb3DQEBAQUAA4IBDwAwggEKAoIBAQCakJR0
3za5Iw4uHvKc0uG2FjlQHBzp4xlGArOt59RaCtgtPWaDVWLZzB16SQq0a9XUxZPn
3+b/9OtP1jBkhaVfJq99UVjfndr40UBiN0vUhl1QYSkk2S4NOKyi9hwYM4SOqnJY
irO4KDZJ8u0jHmG9Yn6SP0OQKyceD97EjNaxH0TgP1bEbhqUJBe2CY/huHCLn/Po
HwfNxOemtQ4wNaVT/TJ5B++BtLcBQQ2j2iSQGS4RkCOm7ddSJo8NbBvUf7bQrc61
h69zQCuyHkLIXra5jXMYKdM3/KAVavnhZAfyGwQAPF+KVIulyVC5prh1ekEqeuCs
tMXcaIC7AqI/J5snAgMBAAGjgb0wgbowCQYDVR0TBAIwADAsBglghkgBhvhCAQ0E
HxYdT3BlblNTTCBHZW5lcmF0ZWQgQ2VydGlmaWNhdGUwHQYDVR0OBBYEFKUp0juf
dmTJVIgnO+VRDpr7inuYMGAGA1UdIwRZMFeAFAkvrH4zv04Ah+tfPwGorIHuPhkm
oTSkMjAwMQswCQYDVQQGEwJJTjESMBAGA1UECBMJS2FybmF0YWthMQ0wCwYDVQQK
EwRTYWhpggkA1ox4XN/1nqMwDQYJKoZIhvcNAQEFBQADgYEAEq0GMOCY/bQ9RlFv
0Aj0JfNiyErp4Dm7M+I5k/onPL6wwuE+wxVMb21jbh31Kr/VYJ8bvnWJ61Qoj9ah
DLG1WjKUI995CEQBzLTSeQ5RwL/NwsQA3A9L99HSUXCHpGaxN1E8cAYXTqJFJPGG
41E1Jd3f+m2vrmNsR1zG80ieDBA=
-----END CERTIFICATE-----
