Certificate:
    Data:
        Version: 3 (0x2)
        Serial Number: 69 (0x45)
        Signature Algorithm: sha1WithRSAEncryption
        Issuer: C=IN, ST=Karnataka, O=Sahi
        Validity
            Not Before: May  6 04:27:28 2015 GMT
            Not After : May  3 04:27:28 2025 GMT
        Subject: C=IN, ST=Karnataka, O=Sahi, OU=Sahi, CN=tiles.services.mozilla.com
        Subject Public Key Info:
            Public Key Algorithm: rsaEncryption
            RSA Public Key: (2048 bit)
                Modulus (2048 bit):
                    00:a0:8b:51:ca:7d:67:aa:29:3b:d9:a5:89:df:ed:
                    9b:e4:30:c5:d7:c6:4b:11:0b:4f:df:46:48:aa:20:
                    c0:22:09:f8:e1:52:5b:d0:b2:3b:a9:da:cb:9e:58:
                    56:ab:2f:2a:e5:8e:27:c4:c2:2b:ae:0e:bf:91:ef:
                    ba:ea:32:18:fe:f6:24:64:99:24:51:c0:b9:de:99:
                    61:70:85:a0:61:b3:9b:d2:b2:e9:fc:9e:cd:c0:9a:
                    4f:d4:91:5c:c7:65:f7:f1:c2:4e:56:51:b1:7c:98:
                    37:af:87:da:a4:ba:51:2a:cb:3f:8d:f8:48:0d:47:
                    1d:28:05:61:13:7d:97:72:3b:4b:82:7c:e7:69:7b:
                    d6:e2:e6:47:c3:66:61:e9:7a:3c:64:ee:0f:45:a6:
                    bb:59:cc:0c:4e:2f:bf:ee:1e:c2:2a:fa:9c:70:93:
                    70:1a:95:08:76:15:b5:07:28:93:15:56:b8:22:ed:
                    c1:14:e0:ef:bc:06:27:e3:75:22:82:2d:09:b8:06:
                    c7:8f:6e:dd:2c:27:d9:01:af:5b:06:e9:d3:9a:d5:
                    5d:05:8b:1b:9f:5e:46:e6:9e:fe:39:9e:d0:99:b4:
                    94:60:53:57:2c:57:d4:eb:10:6c:e5:a7:8e:85:d5:
                    5c:3f:68:c5:78:75:20:58:02:1f:df:75:72:82:43:
                    4c:81
                Exponent: 65537 (0x10001)
        X509v3 extensions:
            X509v3 Basic Constraints: 
                CA:FALSE
            Netscape Comment: 
                OpenSSL Generated Certificate
            X509v3 Subject Key Identifier: 
                CC:99:82:D1:9F:1F:2B:FE:6D:58:6B:63:31:1A:A6:61:3E:64:FF:BC
            X509v3 Authority Key Identifier: 
                keyid:09:2F:AC:7E:33:BF:4E:00:87:EB:5F:3F:01:A8:AC:81:EE:3E:19:26
                DirName:/C=IN/ST=Karnataka/O=Sahi
                serial:D6:8C:78:5C:DF:F5:9E:A3

    Signature Algorithm: sha1WithRSAEncryption
        7f:6e:bf:0a:f7:c1:ca:2e:11:d1:9e:ff:20:28:13:ca:ea:73:
        7d:b9:74:94:0e:b5:16:bd:27:51:2e:4b:24:d9:b2:c9:52:71:
        96:51:e2:78:dd:97:33:ab:70:8f:89:fa:6d:62:ba:a2:30:57:
        ce:a0:e7:2c:fa:8d:4e:e4:cd:c9:34:54:67:41:e7:a7:13:89:
        7e:49:1d:9d:05:a4:55:a9:ad:f1:9f:9b:e3:12:7e:18:eb:aa:
        55:e6:d1:1f:95:15:cc:c1:75:78:96:ce:b1:91:7a:08:81:e7:
        e8:8d:1f:4f:06:7a:75:f1:70:57:93:fb:63:74:3e:52:44:b8:
        17:3c
-----BEGIN CERTIFICATE-----
MIIDTDCCArWgAwIBAgIBRTANBgkqhkiG9w0BAQUFADAwMQswCQYDVQQGEwJJTjES
MBAGA1UECBMJS2FybmF0YWthMQ0wCwYDVQQKEwRTYWhpMB4XDTE1MDUwNjA0Mjcy
OFoXDTI1MDUwMzA0MjcyOFowZDELMAkGA1UEBhMCSU4xEjAQBgNVBAgTCUthcm5h
dGFrYTENMAsGA1UEChMEU2FoaTENMAsGA1UECxMEU2FoaTEjMCEGA1UEAxMadGls
ZXMuc2VydmljZXMubW96aWxsYS5jb20wggEiMA0GCSqGSIb3DQEBAQUAA4IBDwAw
ggEKAoIBAQCgi1HKfWeqKTvZpYnf7ZvkMMXXxksRC0/fRkiqIMAiCfjhUlvQsjup
2sueWFarLyrljifEwiuuDr+R77rqMhj+9iRkmSRRwLnemWFwhaBhs5vSsun8ns3A
mk/UkVzHZffxwk5WUbF8mDevh9qkulEqyz+N+EgNRx0oBWETfZdyO0uCfOdpe9bi
5kfDZmHpejxk7g9FprtZzAxOL7/uHsIq+pxwk3AalQh2FbUHKJMVVrgi7cEU4O+8
BifjdSKCLQm4BsePbt0sJ9kBr1sG6dOa1V0FixufXkbmnv45ntCZtJRgU1csV9Tr
EGzlp46F1Vw/aMV4dSBYAh/fdXKCQ0yBAgMBAAGjgb0wgbowCQYDVR0TBAIwADAs
BglghkgBhvhCAQ0EHxYdT3BlblNTTCBHZW5lcmF0ZWQgQ2VydGlmaWNhdGUwHQYD
VR0OBBYEFMyZgtGfHyv+bVhrYzEapmE+ZP+8MGAGA1UdIwRZMFeAFAkvrH4zv04A
h+tfPwGorIHuPhkmoTSkMjAwMQswCQYDVQQGEwJJTjESMBAGA1UECBMJS2FybmF0
YWthMQ0wCwYDVQQKEwRTYWhpggkA1ox4XN/1nqMwDQYJKoZIhvcNAQEFBQADgYEA
f26/CvfByi4R0Z7/ICgTyupzfbl0lA61Fr0nUS5LJNmyyVJxllHieN2XM6twj4n6
bWK6ojBXzqDnLPqNTuTNyTRUZ0HnpxOJfkkdnQWkVamt8Z+b4xJ+GOuqVebRH5UV
zMF1eJbOsZF6CIHn6I0fTwZ6dfFwV5P7Y3Q+UkS4Fzw=
-----END CERTIFICATE-----
