Certificate:
    Data:
        Version: 3 (0x2)
        Serial Number: 70 (0x46)
        Signature Algorithm: sha1WithRSAEncryption
        Issuer: C=IN, ST=Karnataka, O=Sahi
        Validity
            Not Before: May  6 04:27:35 2015 GMT
            Not After : May  3 04:27:35 2025 GMT
        Subject: C=IN, ST=Karnataka, O=Sahi, OU=Sahi, CN=self-repair.mozilla.org
        Subject Public Key Info:
            Public Key Algorithm: rsaEncryption
            RSA Public Key: (2048 bit)
                Modulus (2048 bit):
                    00:a7:3d:8a:ad:6d:be:1a:5c:e2:18:8d:9b:dc:6c:
                    7b:e5:8b:1f:14:9b:8e:66:3f:df:ff:74:e6:a7:dd:
                    e5:cd:06:d1:97:ba:23:fb:94:84:87:c8:ce:2f:36:
                    87:0d:24:2f:36:bf:0a:2c:3a:05:02:14:f3:dc:33:
                    84:b1:8d:93:47:78:ae:b5:07:1f:f0:00:6f:f6:3b:
                    ba:82:b5:27:26:58:be:85:d4:59:00:da:71:52:c3:
                    2c:23:ac:cb:6d:6e:e0:81:3a:0c:a0:00:e9:0c:ab:
                    ae:12:26:14:43:76:1b:ee:6b:f0:48:1a:78:5d:7d:
                    c7:f1:fa:0b:61:51:cc:4c:a3:2a:79:f7:0c:b7:f0:
                    2c:cb:b7:c6:cc:66:df:b8:bc:50:81:61:74:29:da:
                    12:76:0b:25:d3:9c:69:d4:ae:e8:2d:1e:8a:00:f9:
                    91:37:4a:54:f2:4a:72:7a:45:bd:f9:20:82:53:2c:
                    ad:55:7c:95:71:85:06:7c:b2:80:d9:34:88:fe:ff:
                    99:cb:b9:20:53:d7:fb:00:1c:3f:fb:c5:af:cd:fa:
                    34:58:53:88:52:8c:e8:4b:4c:66:b5:1d:40:53:e6:
                    40:e1:b7:bf:10:b8:9c:26:0c:5a:c0:ae:82:25:37:
                    7d:59:d7:ef:71:dd:d2:ec:35:d2:f0:ab:fb:ee:97:
                    54:05
                Exponent: 65537 (0x10001)
        X509v3 extensions:
            X509v3 Basic Constraints: 
                CA:FALSE
            Netscape Comment: 
                OpenSSL Generated Certificate
            X509v3 Subject Key Identifier: 
                92:01:FB:39:B6:37:D1:8A:48:6B:17:DC:10:C6:CE:0B:B9:CB:7B:B6
            X509v3 Authority Key Identifier: 
                keyid:09:2F:AC:7E:33:BF:4E:00:87:EB:5F:3F:01:A8:AC:81:EE:3E:19:26
                DirName:/C=IN/ST=Karnataka/O=Sahi
                serial:D6:8C:78:5C:DF:F5:9E:A3

    Signature Algorithm: sha1WithRSAEncryption
        40:56:bd:1f:70:ff:c1:72:a8:49:98:11:68:20:f7:56:7b:27:
        08:8c:03:f3:06:38:66:16:bb:3b:da:66:e1:37:0e:4e:3f:71:
        e6:01:71:51:36:bb:92:82:d9:92:d2:48:ad:91:b6:92:a4:ab:
        1e:76:6e:9b:4f:6f:e3:96:e5:73:7c:f4:20:d6:3d:ea:69:a4:
        0a:ce:be:b6:16:97:fb:0b:61:00:bd:30:13:81:a3:d2:43:9a:
        27:50:55:d9:49:76:d3:66:c7:f0:68:61:ab:6c:58:1b:43:38:
        38:dd:1f:26:ae:18:75:ae:ae:4a:fb:e9:4d:00:6d:bc:c9:a6:
        f4:75
-----BEGIN CERTIFICATE-----
MIIDSTCCArKgAwIBAgIBRjANBgkqhkiG9w0BAQUFADAwMQswCQYDVQQGEwJJTjES
MBAGA1UECBMJS2FybmF0YWthMQ0wCwYDVQQKEwRTYWhpMB4XDTE1MDUwNjA0Mjcz
NVoXDTI1MDUwMzA0MjczNVowYTELMAkGA1UEBhMCSU4xEjAQBgNVBAgTCUthcm5h
dGFrYTENMAsGA1UEChMEU2FoaTENMAsGA1UECxMEU2FoaTEgMB4GA1UEAxMXc2Vs
Zi1yZXBhaXIubW96aWxsYS5vcmcwggEiMA0GCSqGSIb3DQEBAQUAA4IBDwAwggEK
AoIBAQCnPYqtbb4aXOIYjZvcbHvlix8Um45mP9//dOan3eXNBtGXuiP7lISHyM4v
NocNJC82vwosOgUCFPPcM4SxjZNHeK61Bx/wAG/2O7qCtScmWL6F1FkA2nFSwywj
rMttbuCBOgygAOkMq64SJhRDdhvua/BIGnhdfcfx+gthUcxMoyp59wy38CzLt8bM
Zt+4vFCBYXQp2hJ2CyXTnGnUrugtHooA+ZE3SlTySnJ6Rb35IIJTLK1VfJVxhQZ8
soDZNIj+/5nLuSBT1/sAHD/7xa/N+jRYU4hSjOhLTGa1HUBT5kDht78QuJwmDFrA
roIlN31Z1+9x3dLsNdLwq/vul1QFAgMBAAGjgb0wgbowCQYDVR0TBAIwADAsBglg
hkgBhvhCAQ0EHxYdT3BlblNTTCBHZW5lcmF0ZWQgQ2VydGlmaWNhdGUwHQYDVR0O
BBYEFJIB+zm2N9GKSGsX3BDGzgu5y3u2MGAGA1UdIwRZMFeAFAkvrH4zv04Ah+tf
PwGorIHuPhkmoTSkMjAwMQswCQYDVQQGEwJJTjESMBAGA1UECBMJS2FybmF0YWth
MQ0wCwYDVQQKEwRTYWhpggkA1ox4XN/1nqMwDQYJKoZIhvcNAQEFBQADgYEAQFa9
H3D/wXKoSZgRaCD3VnsnCIwD8wY4Zha7O9pm4TcOTj9x5gFxUTa7koLZktJIrZG2
kqSrHnZum09v45blc3z0INY96mmkCs6+thaX+wthAL0wE4Gj0kOaJ1BV2Ul202bH
8Ghhq2xYG0M4ON0fJq4Yda6uSvvpTQBtvMmm9HU=
-----END CERTIFICATE-----
