Certificate:
    Data:
        Version: 3 (0x2)
        Serial Number: 71 (0x47)
        Signature Algorithm: sha1WithRSAEncryption
        Issuer: C=IN, ST=Karnataka, O=Sahi
        Validity
            Not Before: May  6 04:27:38 2015 GMT
            Not After : May  3 04:27:38 2025 GMT
        Subject: C=IN, ST=Karnataka, O=Sahi, OU=Sahi, CN=tiles.cdn.mozilla.net
        Subject Public Key Info:
            Public Key Algorithm: rsaEncryption
            RSA Public Key: (2048 bit)
                Modulus (2048 bit):
                    00:96:03:93:17:d7:f7:dc:d6:d2:ed:bf:3d:42:59:
                    93:03:30:d6:b2:c8:90:31:51:d9:6f:dd:82:7e:c9:
                    a6:b4:41:0e:ee:6e:57:b2:5d:c9:5c:2c:ed:56:39:
                    02:80:f5:6b:e9:2b:4d:dd:e8:c4:26:b6:4f:a6:31:
                    5a:06:3b:9f:3a:72:a4:33:8a:d4:28:42:1c:1c:e3:
                    80:1e:99:d1:c9:f2:71:e4:4b:9c:56:c8:4c:11:e6:
                    48:42:7c:ff:ec:f4:b2:c6:42:ef:c5:7c:9b:2a:8c:
                    86:10:33:af:73:6a:38:17:e6:19:52:57:f4:83:e0:
                    7c:6e:c3:09:89:ff:1a:ab:b4:6e:29:7c:83:76:00:
                    18:35:18:1b:50:77:55:48:e5:b7:37:43:f5:da:4a:
                    4a:70:b2:2e:29:b3:5d:06:b0:84:16:e8:4f:89:21:
                    89:be:26:eb:8f:40:6f:6d:55:2e:38:02:ed:00:8b:
                    0e:26:77:26:0a:c8:2b:49:a1:c9:f2:87:b9:0d:48:
                    3e:67:79:8c:a0:38:42:08:dd:13:b9:c1:dd:33:01:
                    d9:34:ee:7d:00:e2:d2:a5:54:c7:0e:84:5a:28:ff:
                    fb:6e:a7:50:55:af:75:af:6d:f1:a0:72:0a:66:7d:
                    9b:d0:f6:8e:ff:66:40:e9:34:8a:88:4c:37:b3:87:
                    15:ef
                Exponent: 65537 (0x10001)
        X509v3 extensions:
            X509v3 Basic Constraints: 
                CA:FALSE
            Netscape Comment: 
                OpenSSL Generated Certificate
            X509v3 Subject Key Identifier: 
                B8:85:E0:8F:29:6C:91:96:B1:AC:B8:D1:B0:D2:0D:EF:B5:93:B0:E3
            X509v3 Authority Key Identifier: 
                keyid:09:2F:AC:7E:33:BF:4E:00:87:EB:5F:3F:01:A8:AC:81:EE:3E:19:26
                DirName:/C=IN/ST=Karnataka/O=Sahi
                serial:D6:8C:78:5C:DF:F5:9E:A3

    Signature Algorithm: sha1WithRSAEncryption
        72:fe:11:98:77:ce:b7:7e:52:55:a7:83:bb:41:f1:de:f1:85:
        7b:0e:89:9a:2e:82:a3:eb:f5:46:ab:28:68:cd:11:85:f4:1f:
        b1:c2:61:95:dc:f9:9a:54:85:d7:1f:00:dc:6a:ec:c9:ea:19:
        e3:1b:eb:63:47:40:46:1d:e0:8a:eb:13:07:b9:6f:fb:58:0e:
        e1:10:e4:c9:47:c4:a9:c2:c8:d5:9c:f3:57:5f:da:48:46:8c:
        99:4b:2b:10:76:67:04:32:30:c3:54:c1:24:73:f3:85:54:34:
        33:9b:1f:a3:aa:c0:9b:c0:84:22:09:db:8d:53:e2:fd:f9:7d:
        98:99
-----BEGIN CERTIFICATE-----
MIIDRzCCArCgAwIBAgIBRzANBgkqhkiG9w0BAQUFADAwMQswCQYDVQQGEwJJTjES
MBAGA1UECBMJS2FybmF0YWthMQ0wCwYDVQQKEwRTYWhpMB4XDTE1MDUwNjA0Mjcz
OFoXDTI1MDUwMzA0MjczOFowXzELMAkGA1UEBhMCSU4xEjAQBgNVBAgTCUthcm5h
dGFrYTENMAsGA1UEChMEU2FoaTENMAsGA1UECxMEU2FoaTEeMBwGA1UEAxMVdGls
ZXMuY2RuLm1vemlsbGEubmV0MIIBIjANBgkqhkiG9w0BAQEFAAOCAQ8AMIIBCgKC
AQEAlgOTF9f33NbS7b89QlmTAzDWssiQMVHZb92CfsmmtEEO7m5Xsl3JXCztVjkC
gPVr6StN3ejEJrZPpjFaBjufOnKkM4rUKEIcHOOAHpnRyfJx5EucVshMEeZIQnz/
7PSyxkLvxXybKoyGEDOvc2o4F+YZUlf0g+B8bsMJif8aq7RuKXyDdgAYNRgbUHdV
SOW3N0P12kpKcLIuKbNdBrCEFuhPiSGJvibrj0BvbVUuOALtAIsOJncmCsgrSaHJ
8oe5DUg+Z3mMoDhCCN0TucHdMwHZNO59AOLSpVTHDoRaKP/7bqdQVa91r23xoHIK
Zn2b0PaO/2ZA6TSKiEw3s4cV7wIDAQABo4G9MIG6MAkGA1UdEwQCMAAwLAYJYIZI
AYb4QgENBB8WHU9wZW5TU0wgR2VuZXJhdGVkIENlcnRpZmljYXRlMB0GA1UdDgQW
BBS4heCPKWyRlrGsuNGw0g3vtZOw4zBgBgNVHSMEWTBXgBQJL6x+M79OAIfrXz8B
qKyB7j4ZJqE0pDIwMDELMAkGA1UEBhMCSU4xEjAQBgNVBAgTCUthcm5hdGFrYTEN
MAsGA1UEChMEU2FoaYIJANaMeFzf9Z6jMA0GCSqGSIb3DQEBBQUAA4GBAHL+EZh3
zrd+UlWng7tB8d7xhXsOiZougqPr9UarKGjNEYX0H7HCYZXc+ZpUhdcfANxq7Mnq
GeMb62NHQEYd4IrrEwe5b/tYDuEQ5MlHxKnCyNWc81df2khGjJlLKxB2ZwQyMMNU
wSRz84VUNDObH6OqwJvAhCIJ241T4v35fZiZ
-----END CERTIFICATE-----
