Certificate:
    Data:
        Version: 3 (0x2)
        Serial Number: 72 (0x48)
        Signature Algorithm: sha1WithRSAEncryption
        Issuer: C=IN, ST=Karnataka, O=Sahi
        Validity
            Not Before: May  6 04:28:29 2015 GMT
            Not After : May  3 04:28:29 2025 GMT
        Subject: C=IN, ST=Karnataka, O=Sahi, OU=Sahi, CN=aus4.mozilla.org
        Subject Public Key Info:
            Public Key Algorithm: rsaEncryption
            RSA Public Key: (2048 bit)
                Modulus (2048 bit):
                    00:ae:a5:46:a2:43:27:c8:36:51:54:49:fd:34:c3:
                    d6:6e:bb:87:db:e3:a6:6a:ce:a8:42:71:ff:36:88:
                    37:57:82:f0:f5:62:9c:15:d6:30:8a:99:49:76:fb:
                    44:6a:12:68:ac:e5:b9:bd:86:38:ec:9b:7a:83:27:
                    22:13:2f:9b:67:08:7c:75:95:a4:45:06:dd:54:27:
                    4f:ea:54:27:08:8c:27:eb:9d:56:39:6d:c7:8c:35:
                    06:42:fb:93:2e:a6:7e:ee:ac:d4:5c:6a:46:32:30:
                    77:5d:fa:81:ea:46:f7:00:08:9b:4c:2c:b3:96:f0:
                    20:d2:a2:06:93:73:41:1a:3f:2e:8b:e1:f9:ee:d1:
                    65:b1:3e:0d:6f:97:02:99:b8:36:26:52:0b:bf:ef:
                    bf:0a:3f:88:a2:55:79:c8:f4:f9:8d:85:65:c2:c2:
                    3a:5c:a4:a5:e3:51:e7:6c:b2:3d:b9:00:52:2b:2d:
                    ee:2a:2b:c5:1a:14:5b:5f:48:a8:e2:d0:46:27:84:
                    61:24:6c:3d:85:46:0a:d5:26:53:ea:74:04:58:7a:
                    cb:1d:56:be:99:f9:89:5e:3a:53:d8:62:e5:29:9c:
                    ab:05:73:90:de:6e:d2:43:1b:67:16:6d:53:97:9a:
                    ac:63:b3:ea:49:2c:cc:99:9f:80:34:55:28:fb:97:
                    a0:cb
                Exponent: 65537 (0x10001)
        X509v3 extensions:
            X509v3 Basic Constraints: 
                CA:FALSE
            Netscape Comment: 
                OpenSSL Generated Certificate
            X509v3 Subject Key Identifier: 
                6B:A1:35:55:DB:E2:9F:0C:36:C7:09:91:3C:C4:43:76:36:EA:C4:F9
            X509v3 Authority Key Identifier: 
                keyid:09:2F:AC:7E:33:BF:4E:00:87:EB:5F:3F:01:A8:AC:81:EE:3E:19:26
                DirName:/C=IN/ST=Karnataka/O=Sahi
                serial:D6:8C:78:5C:DF:F5:9E:A3

    Signature Algorithm: sha1WithRSAEncryption
        ab:d3:e6:43:48:e6:49:93:76:27:3b:fb:93:02:c4:ac:06:14:
        56:0d:34:70:4d:65:75:52:b6:89:0f:67:b7:03:b6:88:d1:ab:
        d3:7d:6c:29:6e:0a:e5:98:e8:66:65:74:c8:ca:ce:14:fd:50:
        bb:2b:ba:7f:da:54:25:f3:82:2e:a3:93:9a:9d:8a:74:87:58:
        f9:c9:04:2f:05:cd:97:78:fd:b3:6d:18:5f:fa:13:d1:af:87:
        30:71:77:34:25:46:c4:06:be:f9:57:c8:70:2f:87:31:f2:47:
        34:59:2e:4d:7b:a2:57:3b:6d:42:4d:75:f8:d3:e6:f7:ac:05:
        af:e3
-----BEGIN CERTIFICATE-----
MIIDQjCCAqugAwIBAgIBSDANBgkqhkiG9w0BAQUFADAwMQswCQYDVQQGEwJJTjES
MBAGA1UECBMJS2FybmF0YWthMQ0wCwYDVQQKEwRTYWhpMB4XDTE1MDUwNjA0Mjgy
OVoXDTI1MDUwMzA0MjgyOVowWjELMAkGA1UEBhMCSU4xEjAQBgNVBAgTCUthcm5h
dGFrYTENMAsGA1UEChMEU2FoaTENMAsGA1UECxMEU2FoaTEZMBcGA1UEAxMQYXVz
NC5tb3ppbGxhLm9yZzCCASIwDQYJKoZIhvcNAQEBBQADggEPADCCAQoCggEBAK6l
RqJDJ8g2UVRJ/TTD1m67h9vjpmrOqEJx/zaIN1eC8PVinBXWMIqZSXb7RGoSaKzl
ub2GOOybeoMnIhMvm2cIfHWVpEUG3VQnT+pUJwiMJ+udVjltx4w1BkL7ky6mfu6s
1FxqRjIwd136gepG9wAIm0wss5bwINKiBpNzQRo/Lovh+e7RZbE+DW+XApm4NiZS
C7/vvwo/iKJVecj0+Y2FZcLCOlykpeNR52yyPbkAUist7iorxRoUW19IqOLQRieE
YSRsPYVGCtUmU+p0BFh6yx1Wvpn5iV46U9hi5SmcqwVzkN5u0kMbZxZtU5earGOz
6kkszJmfgDRVKPuXoMsCAwEAAaOBvTCBujAJBgNVHRMEAjAAMCwGCWCGSAGG+EIB
DQQfFh1PcGVuU1NMIEdlbmVyYXRlZCBDZXJ0aWZpY2F0ZTAdBgNVHQ4EFgQUa6E1
Vdvinww2xwmRPMRDdjbqxPkwYAYDVR0jBFkwV4AUCS+sfjO/TgCH618/Aaisge4+
GSahNKQyMDAxCzAJBgNVBAYTAklOMRIwEAYDVQQIEwlLYXJuYXRha2ExDTALBgNV
BAoTBFNhaGmCCQDWjHhc3/WeozANBgkqhkiG9w0BAQUFAAOBgQCr0+ZDSOZJk3Yn
O/uTAsSsBhRWDTRwTWV1UraJD2e3A7aI0avTfWwpbgrlmOhmZXTIys4U/VC7K7p/
2lQl84Iuo5OanYp0h1j5yQQvBc2XeP2zbRhf+hPRr4cwcXc0JUbEBr75V8hwL4cx
8kc0WS5Ne6JXO21CTXX40+b3rAWv4w==
-----END CERTIFICATE-----
