Certificate:
    Data:
        Version: 3 (0x2)
        Serial Number: 73 (0x49)
        Signature Algorithm: sha1WithRSAEncryption
        Issuer: C=IN, ST=Karnataka, O=Sahi
        Validity
            Not Before: May  6 11:01:04 2015 GMT
            Not After : May  3 11:01:04 2025 GMT
        Subject: C=IN, ST=Karnataka, O=Sahi, OU=Sahi, CN=location.services.mozilla.com
        Subject Public Key Info:
            Public Key Algorithm: rsaEncryption
            RSA Public Key: (2048 bit)
                Modulus (2048 bit):
                    00:80:5e:f6:a2:6b:3a:46:53:a7:95:ef:e8:c1:74:
                    9d:0f:f4:99:0f:14:7b:ca:26:ae:7f:6d:fb:65:db:
                    50:1b:fc:b2:54:ee:81:a0:c5:f2:43:12:6a:0c:5f:
                    6e:d9:da:b3:a1:6c:64:1f:5c:e9:be:46:02:20:ee:
                    53:89:9b:2d:1b:ef:73:e8:37:cb:7e:81:53:a3:fe:
                    a8:12:44:cc:d8:dd:3e:3c:d1:04:1d:4e:2c:70:b1:
                    26:07:4e:52:d0:da:18:f1:bd:2b:c0:1c:b1:31:44:
                    20:5c:f5:5d:7b:67:3d:4e:21:a6:87:30:7d:6e:ed:
                    4a:36:12:35:e3:10:0b:3f:53:07:98:1d:2c:fa:b1:
                    a7:1b:dd:45:52:04:cc:fb:6b:e4:83:20:b4:06:cb:
                    58:cb:cd:92:e4:cd:28:fd:40:8c:08:7f:57:a7:ac:
                    bb:a3:98:8f:45:c0:fe:05:60:57:16:89:bf:f8:9b:
                    ee:26:0c:8f:b7:e6:ed:3f:1e:2a:80:0a:99:6e:ec:
                    96:64:0a:05:83:39:5d:89:d9:db:6f:06:13:97:8a:
                    66:00:4c:dd:25:57:14:d0:fb:67:d7:c1:38:a7:40:
                    91:08:4e:2a:5c:8b:0c:66:87:b2:8c:81:d9:35:6f:
                    f7:3b:bd:96:6b:22:5b:b5:dc:3b:4a:ec:6a:07:7e:
                    63:35
                Exponent: 65537 (0x10001)
        X509v3 extensions:
            X509v3 Basic Constraints: 
                CA:FALSE
            Netscape Comment: 
                OpenSSL Generated Certificate
            X509v3 Subject Key Identifier: 
                2F:FE:A4:21:D6:F0:15:6D:4C:3C:6C:6E:AF:A7:0E:FD:07:9C:68:96
            X509v3 Authority Key Identifier: 
                keyid:09:2F:AC:7E:33:BF:4E:00:87:EB:5F:3F:01:A8:AC:81:EE:3E:19:26
                DirName:/C=IN/ST=Karnataka/O=Sahi
                serial:D6:8C:78:5C:DF:F5:9E:A3

    Signature Algorithm: sha1WithRSAEncryption
        22:a2:3b:ff:a3:b2:00:43:3a:44:cd:47:73:16:73:e1:ae:b4:
        38:43:cd:d3:59:2b:43:6c:52:73:75:62:77:a7:ec:fc:a1:a5:
        27:e1:5a:e7:9a:2d:c5:5f:7c:92:7a:f1:76:a1:18:c6:cc:20:
        e0:96:50:53:6a:42:de:65:b6:ac:38:a9:0a:c0:59:ce:4a:cc:
        7e:83:0a:6f:5a:89:0c:7f:6d:35:58:20:9d:16:27:4c:9a:82:
        4b:d4:d4:c9:04:10:e6:15:ce:f1:3d:2d:f3:98:44:a2:e4:4e:
        ef:1c:00:97:dd:53:ef:d9:46:5d:2c:99:68:02:12:e1:19:52:
        ca:60
-----BEGIN CERTIFICATE-----
MIIDTzCCArigAwIBAgIBSTANBgkqhkiG9w0BAQUFADAwMQswCQYDVQQGEwJJTjES
MBAGA1UECBMJS2FybmF0YWthMQ0wCwYDVQQKEwRTYWhpMB4XDTE1MDUwNjExMDEw
NFoXDTI1MDUwMzExMDEwNFowZzELMAkGA1UEBhMCSU4xEjAQBgNVBAgTCUthcm5h
dGFrYTENMAsGA1UEChMEU2FoaTENMAsGA1UECxMEU2FoaTEmMCQGA1UEAxMdbG9j
YXRpb24uc2VydmljZXMubW96aWxsYS5jb20wggEiMA0GCSqGSIb3DQEBAQUAA4IB
DwAwggEKAoIBAQCAXvaiazpGU6eV7+jBdJ0P9JkPFHvKJq5/bftl21Ab/LJU7oGg
xfJDEmoMX27Z2rOhbGQfXOm+RgIg7lOJmy0b73PoN8t+gVOj/qgSRMzY3T480QQd
TixwsSYHTlLQ2hjxvSvAHLExRCBc9V17Zz1OIaaHMH1u7Uo2EjXjEAs/UweYHSz6
sacb3UVSBMz7a+SDILQGy1jLzZLkzSj9QIwIf1enrLujmI9FwP4FYFcWib/4m+4m
DI+35u0/HiqACplu7JZkCgWDOV2J2dtvBhOXimYATN0lVxTQ+2fXwTinQJEITipc
iwxmh7KMgdk1b/c7vZZrIlu13DtK7GoHfmM1AgMBAAGjgb0wgbowCQYDVR0TBAIw
ADAsBglghkgBhvhCAQ0EHxYdT3BlblNTTCBHZW5lcmF0ZWQgQ2VydGlmaWNhdGUw
HQYDVR0OBBYEFC/+pCHW8BVtTDxsbq+nDv0HnGiWMGAGA1UdIwRZMFeAFAkvrH4z
v04Ah+tfPwGorIHuPhkmoTSkMjAwMQswCQYDVQQGEwJJTjESMBAGA1UECBMJS2Fy
bmF0YWthMQ0wCwYDVQQKEwRTYWhpggkA1ox4XN/1nqMwDQYJKoZIhvcNAQEFBQAD
gYEAIqI7/6OyAEM6RM1HcxZz4a60OEPN01krQ2xSc3Vid6fs/KGlJ+Fa55otxV98
knrxdqEYxswg4JZQU2pC3mW2rDipCsBZzkrMfoMKb1qJDH9tNVggnRYnTJqCS9TU
yQQQ5hXO8T0t85hEouRO7xwAl91T79lGXSyZaAIS4RlSymA=
-----END CERTIFICATE-----
